(lp0
cdeap.creator
Individual
p1
((lp2
F0.0
aF0.0
aF0.0
aF0.0
aF0.0
aF0.0
aF1.0
aF0.0
aF0.0
aF0.0
aF1.0
aF0.0
aF0.0
aF0.0
aF0.0
aF0.0
aF0.0
aF0.0
aF0.0
aF0.0
aF0.0
aF0.0
aF0.0
aF2.0
aF0.0
aF3.0
aF0.0
aF0.0
aF3.0
aF0.0
aF0.0
aF0.0
aF0.0
aF0.0
aF1.0
aF0.0
aF0.0
aF1.0
aF0.0
aF0.0
aF1.0
aF0.0
aF0.0
aF0.0
aF0.0
aF0.0
aF0.0
aF0.0
aF0.0
aF0.0
aF4.0
aF1.0
aF3.0
aF0.0
aF2.0
aF0.0
aF0.0
aF1.0
aF0.0
aF0.0
aF0.0
aF0.0
aF0.0
aF0.0
aF1.0
aF0.0
aF2.0
aF0.0
aF0.0
aF0.0
aF1.0
aF2.0
aF0.0
aF3.0
aF0.0
aF1.0
aF0.0
aF0.0
aF2.0
aF0.0
aF0.0
aF0.0
aF0.0
aF0.0
aF0.0
aF0.0
aF0.0
aF0.0
aF0.0
aF0.0
aF1.0
aF2.0
aF0.0
aF1.0
aF0.0
aF0.0
aF0.0
aF0.0
aF0.0
aF0.0
aF2.0
aF0.0
aF0.0
aF0.0
aF0.0
atp3
Rp4
(dp5
S'comp_time'
p6
F0.0
sS'io_time'
p7
F33.333
sS'gen'
p8
I60
sS'fitness'
p9
ccopy_reg
_reconstructor
p10
(cdeap.creator
FitnessMulti
p11
c__builtin__
object
p12
Ntp13
Rp14
(dp15
S'crowding_dist'
p16
Finf
sS'wvalues'
p17
(F-21.939799999999998
cnumpy.core._multiarray_umath
scalar
p18
(cnumpy
dtype
p19
(S'f8'
p20
I0
I1
tp21
Rp22
(I3
S'<'
p23
NNNI-1
I-1
I0
tp24
bS'\x96\xf5\xd5\xcd\x8a5\xb7?'
p25
tp26
Rp27
tp28
sbsS'runtime'
p29
F341.2123591899872
sS'id'
p30
I200159630
sS'simu_time'
p31
F341.2123591899872
sbag1
((lp32
F0.0
aF2.0
aF0.0
aF0.0
aF0.0
aF0.0
aF2.0
aF0.0
aF0.0
aF0.0
aF1.0
aF0.0
aF0.0
aF0.0
aF0.0
aF0.0
aF0.0
aF0.0
aF0.0
aF0.0
aF2.0
aF0.0
aF0.0
aF2.0
aF0.0
aF2.0
aF0.0
aF2.0
aF2.0
aF0.0
aF2.0
aF0.0
aF0.0
aF2.0
aF2.0
aF0.0
aF2.0
aF2.0
aF0.0
aF1.0
aF3.0
aF0.0
aF0.0
aF2.0
aF2.0
aF0.0
aF2.0
aF0.0
aF2.0
aF2.0
aF0.0
aF1.0
aF3.0
aF0.0
aF0.0
aF1.0
aF0.0
aF2.0
aF0.0
aF0.0
aF0.0
aF2.0
aF0.0
aF0.0
aF1.0
aF0.0
aF2.0
aF0.0
aF0.0
aF2.0
aF2.0
aF0.0
aF1.0
aF2.0
aF0.0
aF1.0
aF3.0
aF4.0
aF2.0
aF0.0
aF0.0
aF0.0
aF0.0
aF0.0
aF0.0
aF0.0
aF0.0
aF0.0
aF0.0
aF0.0
aF1.0
aF2.0
aF0.0
aF1.0
aF0.0
aF0.0
aF0.0
aF0.0
aF0.0
aF2.0
aF2.0
aF0.0
aF0.0
aF0.0
aF0.0
atp33
Rp34
(dp35
g6
F0.0
sg7
F48.116
sg8
I63
sg9
g10
(g11
g12
Ntp36
Rp37
(dp38
g16
Finf
sg17
(F-81.42482999999993
g18
(g22
S'\x8d\x7f\xcf\x007\x02\xd3?'
p39
tp40
Rp41
tp42
sbsg29
F330.2320439815521
sg30
I156278373
sg31
F330.2320439815521
sbag1
((lp43
F0.0
aF0.0
aF0.0
aF0.0
aF0.0
aF0.0
aF1.0
aF0.0
aF0.0
aF0.0
aF0.0
aF2.0
aF0.0
aF0.0
aF0.0
aF0.0
aF0.0
aF0.0
aF0.0
aF0.0
aF0.0
aF0.0
aF0.0
aF2.0
aF0.0
aF3.0
aF0.0
aF0.0
aF3.0
aF0.0
aF0.0
aF0.0
aF0.0
aF0.0
aF1.0
aF0.0
aF0.0
aF1.0
aF0.0
aF0.0
aF1.0
aF0.0
aF0.0
aF0.0
aF0.0
aF0.0
aF0.0
aF0.0
aF0.0
aF0.0
aF4.0
aF1.0
aF3.0
aF0.0
aF0.0
aF0.0
aF0.0
aF1.0
aF0.0
aF0.0
aF0.0
aF0.0
aF0.0
aF0.0
aF1.0
aF0.0
aF2.0
aF0.0
aF0.0
aF0.0
aF3.0
aF0.0
aF0.0
aF3.0
aF0.0
aF1.0
aF0.0
aF0.0
aF2.0
aF0.0
aF0.0
aF0.0
aF0.0
aF0.0
aF0.0
aF0.0
aF0.0
aF0.0
aF0.0
aF0.0
aF1.0
aF2.0
aF0.0
aF1.0
aF0.0
aF0.0
aF0.0
aF0.0
aF0.0
aF0.0
aF2.0
aF0.0
aF0.0
aF0.0
aF0.0
atp44
Rp45
(dp46
g6
F0.0
sg29
F271.5872151851654
sg31
F271.5872151851654
sg7
F15.822
sg9
g10
(g11
g12
Ntp47
Rp48
(dp49
g16
g18
(g22
S'\xfei\x9c\xd2\xe4\xad\xb7?'
p50
tp51
Rp52
sg17
(F-23.171170000000007
g18
(g22
S'}z\xfc\x0fa\xba\xba?'
p53
tp54
Rp55
tp56
sbsg8
I43
sg30
I163726012
sbag1
((lp57
F0.0
aF2.0
aF0.0
aF0.0
aF0.0
aF0.0
aF2.0
aF0.0
aF0.0
aF0.0
aF1.0
aF0.0
aF0.0
aF0.0
aF0.0
aF0.0
aF0.0
aF0.0
aF0.0
aF0.0
aF2.0
aF0.0
aF0.0
aF2.0
aF0.0
aF2.0
aF0.0
aF2.0
aF2.0
aF0.0
aF2.0
aF0.0
aF0.0
aF2.0
aF2.0
aF0.0
aF0.0
aF2.0
aF0.0
aF0.0
aF2.0
aF0.0
aF0.0
aF2.0
aF2.0
aF0.0
aF2.0
aF0.0
aF2.0
aF2.0
aF0.0
aF1.0
aF3.0
aF0.0
aF0.0
aF0.0
aF0.0
aF1.0
aF0.0
aF0.0
aF0.0
aF0.0
aF0.0
aF0.0
aF1.0
aF0.0
aF2.0
aF0.0
aF0.0
aF2.0
aF2.0
aF0.0
aF1.0
aF2.0
aF0.0
aF1.0
aF3.0
aF0.0
aF2.0
aF2.0
aF0.0
aF0.0
aF0.0
aF0.0
aF0.0
aF0.0
aF0.0
aF0.0
aF0.0
aF0.0
aF1.0
aF2.0
aF0.0
aF0.0
aF2.0
aF0.0
aF0.0
aF0.0
aF0.0
aF0.0
aF2.0
aF0.0
aF0.0
aF0.0
aF0.0
atp58
Rp59
(dp60
g6
F0.0
sg7
F51.777
sg8
I41
sg9
g10
(g11
g12
Ntp61
Rp62
(dp63
g16
g18
(g22
S'a\xf4l\xa5,0\xb3?'
p64
tp65
Rp66
sg17
(F-76.18084999999996
g18
(g22
S"\x07'\x9cV\x94\xd0\xd2?"
p67
tp68
Rp69
tp70
sbsg29
F308.8918647766113
sg30
I150356023
sg31
F308.8918647766113
sbag1
((lp71
F0.0
aF0.0
aF0.0
aF0.0
aF0.0
aF0.0
aF1.0
aF0.0
aF0.0
aF0.0
aF0.0
aF2.0
aF0.0
aF0.0
aF0.0
aF0.0
aF0.0
aF0.0
aF0.0
aF0.0
aF0.0
aF0.0
aF0.0
aF2.0
aF0.0
aF3.0
aF0.0
aF0.0
aF3.0
aF0.0
aF0.0
aF0.0
aF0.0
aF0.0
aF1.0
aF0.0
aF0.0
aF1.0
aF0.0
aF0.0
aF1.0
aF0.0
aF0.0
aF0.0
aF0.0
aF0.0
aF0.0
aF0.0
aF0.0
aF0.0
aF4.0
aF0.0
aF1.0
aF0.0
aF0.0
aF0.0
aF0.0
aF1.0
aF0.0
aF0.0
aF0.0
aF0.0
aF0.0
aF0.0
aF1.0
aF0.0
aF2.0
aF0.0
aF0.0
aF0.0
aF3.0
aF0.0
aF1.0
aF2.0
aF0.0
aF1.0
aF0.0
aF0.0
aF2.0
aF0.0
aF0.0
aF0.0
aF0.0
aF0.0
aF0.0
aF0.0
aF0.0
aF0.0
aF0.0
aF0.0
aF1.0
aF2.0
aF0.0
aF1.0
aF0.0
aF0.0
aF0.0
aF0.0
aF0.0
aF0.0
aF2.0
aF0.0
aF0.0
aF0.0
aF0.0
atp72
Rp73
(dp74
g6
F0.0
sg7
F44.99
sg8
I51
sg9
g10
(g11
g12
Ntp75
Rp76
(dp77
g16
g18
(g22
S'\x08\xa6\xe3\xafx\x8a\xb2?'
p78
tp79
Rp80
sg17
(F-24.915890000000005
g18
(g22
S'(\xa6\xf0\xfa\xb1V\xbe?'
p81
tp82
Rp83
tp84
sbsg29
F245.4147710800171
sg30
I115299395
sg31
F245.4147710800171
sbag1
((lp85
F0.0
aF0.0
aF0.0
aF0.0
aF0.0
aF0.0
aF1.0
aF0.0
aF0.0
aF0.0
aF0.0
aF2.0
aF0.0
aF0.0
aF0.0
aF0.0
aF0.0
aF0.0
aF0.0
aF0.0
aF0.0
aF0.0
aF0.0
aF2.0
aF0.0
aF3.0
aF0.0
aF0.0
aF3.0
aF0.0
aF0.0
aF0.0
aF0.0
aF0.0
aF1.0
aF0.0
aF0.0
aF1.0
aF0.0
aF0.0
aF1.0
aF0.0
aF0.0
aF0.0
aF0.0
aF0.0
aF0.0
aF0.0
aF2.0
aF2.0
aF0.0
aF0.0
aF1.0
aF0.0
aF0.0
aF0.0
aF0.0
aF1.0
aF0.0
aF0.0
aF0.0
aF0.0
aF0.0
aF0.0
aF1.0
aF0.0
aF2.0
aF0.0
aF0.0
aF0.0
aF3.0
aF0.0
aF1.0
aF2.0
aF0.0
aF1.0
aF0.0
aF0.0
aF2.0
aF0.0
aF0.0
aF0.0
aF0.0
aF0.0
aF0.0
aF0.0
aF0.0
aF0.0
aF0.0
aF0.0
aF1.0
aF2.0
aF0.0
aF1.0
aF0.0
aF0.0
aF0.0
aF0.0
aF0.0
aF0.0
aF2.0
aF0.0
aF0.0
aF0.0
aF0.0
atp86
Rp87
(dp88
g6
F0.0
sg7
F43.176
sg8
I49
sg9
g10
(g11
g12
Ntp89
Rp90
(dp91
g16
g18
(g22
S'/\xcf\x11q\xed\xc4\xa8?'
p92
tp93
Rp94
sg17
(F-28.3067
g18
(g22
S'\x15\x8a\\\xc6\x0f=\xc1?'
p95
tp96
Rp97
tp98
sbsg29
F255.5083680152893
sg30
I210767295
sg31
F255.5083680152893
sbag1
((lp99
F0.0
aF2.0
aF0.0
aF0.0
aF0.0
aF0.0
aF2.0
aF0.0
aF0.0
aF0.0
aF1.0
aF0.0
aF0.0
aF0.0
aF0.0
aF0.0
aF0.0
aF0.0
aF0.0
aF0.0
aF2.0
aF0.0
aF0.0
aF2.0
aF0.0
aF2.0
aF0.0
aF2.0
aF2.0
aF0.0
aF2.0
aF0.0
aF0.0
aF2.0
aF2.0
aF0.0
aF0.0
aF2.0
aF0.0
aF0.0
aF2.0
aF0.0
aF0.0
aF2.0
aF2.0
aF0.0
aF2.0
aF0.0
aF2.0
aF2.0
aF0.0
aF1.0
aF3.0
aF0.0
aF2.0
aF0.0
aF0.0
aF1.0
aF0.0
aF0.0
aF0.0
aF0.0
aF0.0
aF1.0
aF0.0
aF4.0
aF2.0
aF0.0
aF0.0
aF2.0
aF2.0
aF0.0
aF1.0
aF2.0
aF0.0
aF1.0
aF0.0
aF0.0
aF2.0
aF0.0
aF0.0
aF0.0
aF0.0
aF0.0
aF0.0
aF0.0
aF0.0
aF0.0
aF0.0
aF0.0
aF1.0
aF2.0
aF0.0
aF1.0
aF0.0
aF0.0
aF0.0
aF0.0
aF0.0
aF2.0
aF2.0
aF0.0
aF0.0
aF0.0
aF0.0
atp100
Rp101
(dp102
g6
F0.0
sg7
F49.621
sg8
I48
sg9
g10
(g11
g12
Ntp103
Rp104
(dp105
g16
g18
(g22
S'\xa1\x10\x9e\x19\xb7)\xa8?'
p106
tp107
Rp108
sg17
(F-69.49639999999997
g18
(g22
S'\x1f\xaf$X~\x1a\xd2?'
p109
tp110
Rp111
tp112
sbsg29
F318.7249391078949
sg30
I673882921
sg31
F318.7249391078949
sbag1
((lp113
F0.0
aF0.0
aF0.0
aF0.0
aF0.0
aF0.0
aF1.0
aF0.0
aF0.0
aF0.0
aF0.0
aF2.0
aF0.0
aF0.0
aF0.0
aF0.0
aF0.0
aF0.0
aF0.0
aF0.0
aF0.0
aF0.0
aF0.0
aF2.0
aF0.0
aF3.0
aF0.0
aF2.0
aF2.0
aF0.0
aF0.0
aF0.0
aF0.0
aF0.0
aF1.0
aF0.0
aF0.0
aF2.0
aF0.0
aF0.0
aF2.0
aF0.0
aF0.0
aF0.0
aF0.0
aF0.0
aF0.0
aF0.0
aF0.0
aF0.0
aF4.0
aF1.0
aF3.0
aF0.0
aF0.0
aF0.0
aF0.0
aF1.0
aF0.0
aF0.0
aF0.0
aF0.0
aF0.0
aF0.0
aF1.0
aF0.0
aF2.0
aF0.0
aF0.0
aF0.0
aF3.0
aF0.0
aF1.0
aF2.0
aF0.0
aF1.0
aF0.0
aF0.0
aF2.0
aF0.0
aF0.0
aF0.0
aF0.0
aF0.0
aF0.0
aF0.0
aF0.0
aF0.0
aF0.0
aF0.0
aF1.0
aF2.0
aF0.0
aF1.0
aF0.0
aF0.0
aF0.0
aF0.0
aF0.0
aF0.0
aF2.0
aF0.0
aF0.0
aF0.0
aF0.0
atp114
Rp115
(dp116
g6
F0.0
sg7
F58.995
sg8
I62
sg9
g10
(g11
g12
Ntp117
Rp118
(dp119
g16
g18
(g22
S'\x05y\x1da\xb8\x8e\xa7?'
p120
tp121
Rp122
sg17
(F-30.627220000000023
g18
(g22
S'%\x85i\xfeUE\xc4?'
p123
tp124
Rp125
tp126
sbsg29
F286.6861698627472
sg30
I102818500
sg31
F286.6861698627472
sbag1
((lp127
F0.0
aF0.0
aF0.0
aF0.0
aF0.0
aF0.0
aF1.0
aF0.0
aF0.0
aF0.0
aF0.0
aF2.0
aF0.0
aF0.0
aF0.0
aF0.0
aF0.0
aF0.0
aF0.0
aF0.0
aF0.0
aF0.0
aF0.0
aF2.0
aF0.0
aF3.0
aF0.0
aF2.0
aF2.0
aF0.0
aF2.0
aF0.0
aF0.0
aF2.0
aF2.0
aF0.0
aF0.0
aF2.0
aF0.0
aF0.0
aF2.0
aF0.0
aF0.0
aF0.0
aF0.0
aF0.0
aF0.0
aF0.0
aF0.0
aF0.0
aF4.0
aF1.0
aF3.0
aF0.0
aF0.0
aF0.0
aF0.0
aF1.0
aF0.0
aF0.0
aF0.0
aF0.0
aF0.0
aF0.0
aF1.0
aF0.0
aF2.0
aF0.0
aF0.0
aF0.0
aF3.0
aF0.0
aF0.0
aF3.0
aF0.0
aF1.0
aF0.0
aF0.0
aF2.0
aF0.0
aF0.0
aF0.0
aF0.0
aF0.0
aF0.0
aF0.0
aF0.0
aF0.0
aF0.0
aF0.0
aF1.0
aF2.0
aF0.0
aF1.0
aF0.0
aF0.0
aF0.0
aF0.0
aF0.0
aF0.0
aF2.0
aF0.0
aF0.0
aF0.0
aF0.0
atp128
Rp129
(dp130
g6
F0.0
sg7
F50.071
sg8
I61
sg9
g10
(g11
g12
Ntp131
Rp132
(dp133
g16
g18
(g22
S'h\x1b.D6\x88\xa7?'
p134
tp135
Rp136
sg17
(F-35.369250000000015
g18
(g22
S'h\x03\xdf\xbd\x7f`\xc6?'
p137
tp138
Rp139
tp140
sbsg29
F344.02296805381775
sg30
I483399888
sg31
F344.02296805381775
sbag1
((lp141
F0.0
aF0.0
aF0.0
aF0.0
aF0.0
aF0.0
aF1.0
aF0.0
aF0.0
aF0.0
aF0.0
aF2.0
aF0.0
aF0.0
aF0.0
aF0.0
aF0.0
aF0.0
aF0.0
aF0.0
aF0.0
aF0.0
aF0.0
aF2.0
aF0.0
aF3.0
aF0.0
aF2.0
aF2.0
aF0.0
aF0.0
aF0.0
aF0.0
aF0.0
aF1.0
aF0.0
aF0.0
aF2.0
aF0.0
aF1.0
aF3.0
aF0.0
aF0.0
aF0.0
aF0.0
aF0.0
aF0.0
aF0.0
aF0.0
aF0.0
aF4.0
aF1.0
aF3.0
aF0.0
aF0.0
aF0.0
aF0.0
aF1.0
aF0.0
aF0.0
aF0.0
aF0.0
aF0.0
aF0.0
aF1.0
aF0.0
aF2.0
aF0.0
aF0.0
aF0.0
aF3.0
aF0.0
aF1.0
aF2.0
aF0.0
aF1.0
aF0.0
aF0.0
aF2.0
aF0.0
aF0.0
aF0.0
aF0.0
aF0.0
aF0.0
aF0.0
aF0.0
aF0.0
aF0.0
aF0.0
aF1.0
aF2.0
aF0.0
aF1.0
aF0.0
aF0.0
aF0.0
aF0.0
aF0.0
aF0.0
aF2.0
aF0.0
aF0.0
aF0.0
aF0.0
atp142
Rp143
(dp144
g6
F0.0
sg7
F32.387
sg8
I57
sg9
g10
(g11
g12
Ntp145
Rp146
(dp147
g16
g18
(g22
S'\xb4\xde\xf6\xffjO\xa6?'
p148
tp149
Rp150
sg17
(F-29.155970000000018
g18
(g22
S'\xb9>\x92\xce\x9b2\xc3?'
p151
tp152
Rp153
tp154
sbsg29
F307.8034029006958
sg30
I183927860
sg31
F307.8034029006958
sbag1
((lp155
F0.0
aF2.0
aF0.0
aF0.0
aF0.0
aF0.0
aF1.0
aF0.0
aF0.0
aF0.0
aF1.0
aF0.0
aF0.0
aF0.0
aF0.0
aF0.0
aF0.0
aF0.0
aF0.0
aF0.0
aF0.0
aF0.0
aF0.0
aF2.0
aF0.0
aF2.0
aF0.0
aF2.0
aF2.0
aF0.0
aF2.0
aF0.0
aF0.0
aF2.0
aF2.0
aF0.0
aF0.0
aF2.0
aF0.0
aF0.0
aF2.0
aF0.0
aF0.0
aF2.0
aF2.0
aF0.0
aF2.0
aF0.0
aF2.0
aF2.0
aF0.0
aF1.0
aF3.0
aF0.0
aF0.0
aF0.0
aF0.0
aF1.0
aF0.0
aF0.0
aF0.0
aF0.0
aF0.0
aF1.0
aF0.0
aF4.0
aF0.0
aF3.0
aF0.0
aF0.0
aF2.0
aF0.0
aF1.0
aF2.0
aF0.0
aF1.0
aF3.0
aF0.0
aF2.0
aF0.0
aF0.0
aF0.0
aF0.0
aF0.0
aF0.0
aF0.0
aF0.0
aF0.0
aF0.0
aF0.0
aF1.0
aF2.0
aF0.0
aF1.0
aF0.0
aF0.0
aF0.0
aF0.0
aF0.0
aF2.0
aF2.0
aF0.0
aF0.0
aF0.0
aF0.0
atp156
Rp157
(dp158
g6
F0.0
sg29
F297.2748908996582
sg31
F297.2748908996582
sg7
F13.101
sg9
g10
(g11
g12
Ntp159
Rp160
(dp161
g16
g18
(g22
S'\x97F\xeb\x87\xca\x1c\xa6?'
p162
tp163
Rp164
sg17
(F-73.62243999999995
g18
(g22
S'\xa2\x94\xf7\xe4\xd9\xc2\xd2?'
p165
tp166
Rp167
tp168
sbsg8
I55
sg30
I101373205
sbag1
((lp169
F0.0
aF0.0
aF0.0
aF0.0
aF0.0
aF0.0
aF1.0
aF0.0
aF0.0
aF0.0
aF1.0
aF0.0
aF0.0
aF0.0
aF0.0
aF0.0
aF0.0
aF0.0
aF0.0
aF0.0
aF0.0
aF0.0
aF0.0
aF2.0
aF0.0
aF2.0
aF0.0
aF2.0
aF2.0
aF0.0
aF2.0
aF0.0
aF0.0
aF0.0
aF1.0
aF0.0
aF0.0
aF2.0
aF0.0
aF0.0
aF2.0
aF0.0
aF0.0
aF0.0
aF0.0
aF0.0
aF0.0
aF0.0
aF0.0
aF0.0
aF4.0
aF1.0
aF3.0
aF0.0
aF0.0
aF0.0
aF0.0
aF1.0
aF0.0
aF0.0
aF0.0
aF0.0
aF0.0
aF1.0
aF0.0
aF4.0
aF2.0
aF0.0
aF0.0
aF0.0
aF3.0
aF0.0
aF1.0
aF2.0
aF0.0
aF1.0
aF0.0
aF0.0
aF2.0
aF0.0
aF0.0
aF0.0
aF0.0
aF0.0
aF0.0
aF0.0
aF0.0
aF0.0
aF0.0
aF0.0
aF1.0
aF2.0
aF0.0
aF1.0
aF0.0
aF0.0
aF0.0
aF0.0
aF0.0
aF0.0
aF2.0
aF0.0
aF0.0
aF0.0
aF0.0
atp170
Rp171
(dp172
g6
F0.0
sg7
F46.734
sg8
I48
sg9
g10
(g11
g12
Ntp173
Rp174
(dp175
g16
g18
(g22
S'\xb2\x7f\x9f\xdb\xc8\x1c\xa6?'
p176
tp177
Rp178
sg17
(F-33.911130000000014
g18
(g22
S'bv\xe9\xe6\xf7x\xc5?'
p179
tp180
Rp181
tp182
sbsg29
F359.6151759624481
sg30
I206499393
sg31
F359.6151759624481
sbag1
((lp183
F0.0
aF2.0
aF0.0
aF0.0
aF0.0
aF0.0
aF1.0
aF0.0
aF0.0
aF0.0
aF0.0
aF2.0
aF0.0
aF0.0
aF0.0
aF0.0
aF0.0
aF0.0
aF0.0
aF0.0
aF2.0
aF1.0
aF0.0
aF0.0
aF0.0
aF2.0
aF0.0
aF2.0
aF2.0
aF0.0
aF2.0
aF0.0
aF0.0
aF2.0
aF2.0
aF0.0
aF0.0
aF2.0
aF0.0
aF0.0
aF2.0
aF0.0
aF0.0
aF2.0
aF2.0
aF0.0
aF2.0
aF0.0
aF2.0
aF2.0
aF0.0
aF1.0
aF3.0
aF0.0
aF0.0
aF0.0
aF0.0
aF1.0
aF0.0
aF0.0
aF0.0
aF0.0
aF0.0
aF1.0
aF0.0
aF4.0
aF0.0
aF3.0
aF0.0
aF0.0
aF2.0
aF0.0
aF1.0
aF2.0
aF0.0
aF1.0
aF0.0
aF0.0
aF2.0
aF0.0
aF0.0
aF0.0
aF0.0
aF0.0
aF0.0
aF0.0
aF0.0
aF0.0
aF0.0
aF0.0
aF1.0
aF2.0
aF0.0
aF1.0
aF0.0
aF0.0
aF0.0
aF0.0
aF0.0
aF0.0
aF2.0
aF0.0
aF0.0
aF0.0
aF0.0
atp184
Rp185
(dp186
g6
F0.0
sg7
F62.402
sg8
I58
sg9
g10
(g11
g12
Ntp187
Rp188
(dp189
g16
g18
(g22
S'[\xc0\xd8+)\x9b\xa4?'
p190
tp191
Rp192
sg17
(F-65.71212999999997
g18
(g22
S'\x1f\xc7\x977\xa5\xd3\xd1?'
p193
tp194
Rp195
tp196
sbsg29
F266.14010190963745
sg30
I257122401
sg31
F266.14010190963745
sbag1
((lp197
F0.0
aF2.0
aF0.0
aF0.0
aF0.0
aF0.0
aF1.0
aF0.0
aF0.0
aF0.0
aF1.0
aF0.0
aF0.0
aF0.0
aF0.0
aF0.0
aF0.0
aF0.0
aF0.0
aF0.0
aF2.0
aF0.0
aF0.0
aF2.0
aF0.0
aF2.0
aF0.0
aF2.0
aF2.0
aF0.0
aF2.0
aF0.0
aF0.0
aF2.0
aF2.0
aF0.0
aF0.0
aF2.0
aF0.0
aF0.0
aF2.0
aF0.0
aF0.0
aF0.0
aF0.0
aF0.0
aF2.0
aF0.0
aF2.0
aF2.0
aF0.0
aF1.0
aF3.0
aF0.0
aF2.0
aF0.0
aF0.0
aF1.0
aF0.0
aF0.0
aF0.0
aF0.0
aF0.0
aF1.0
aF0.0
aF4.0
aF2.0
aF0.0
aF0.0
aF2.0
aF2.0
aF0.0
aF1.0
aF2.0
aF0.0
aF1.0
aF0.0
aF0.0
aF2.0
aF0.0
aF0.0
aF0.0
aF0.0
aF0.0
aF0.0
aF0.0
aF0.0
aF0.0
aF0.0
aF0.0
aF1.0
aF2.0
aF0.0
aF1.0
aF0.0
aF0.0
aF0.0
aF0.0
aF0.0
aF2.0
aF2.0
aF0.0
aF0.0
aF0.0
aF0.0
atp198
Rp199
(dp200
g6
F0.0
sg7
F72.446
sg8
I54
sg9
g10
(g11
g12
Ntp201
Rp202
(dp203
g16
g18
(g22
S"'!;\xd0\x96\x87\xa4?"
p204
tp205
Rp206
sg17
(F-64.02055999999996
g18
(g22
S'\x10\xc7n\x13\rj\xd1?'
p207
tp208
Rp209
tp210
sbsg29
F296.4039628505707
sg30
I207924090
sg31
F296.4039628505707
sbag1
((lp211
F0.0
aF2.0
aF0.0
aF0.0
aF0.0
aF0.0
aF1.0
aF0.0
aF0.0
aF0.0
aF0.0
aF2.0
aF0.0
aF0.0
aF0.0
aF0.0
aF0.0
aF0.0
aF0.0
aF0.0
aF2.0
aF1.0
aF0.0
aF0.0
aF0.0
aF2.0
aF0.0
aF2.0
aF2.0
aF0.0
aF2.0
aF0.0
aF0.0
aF2.0
aF2.0
aF0.0
aF0.0
aF2.0
aF0.0
aF0.0
aF2.0
aF0.0
aF0.0
aF2.0
aF2.0
aF0.0
aF2.0
aF0.0
aF2.0
aF2.0
aF0.0
aF1.0
aF3.0
aF0.0
aF0.0
aF0.0
aF0.0
aF1.0
aF0.0
aF0.0
aF0.0
aF0.0
aF0.0
aF1.0
aF0.0
aF4.0
aF0.0
aF3.0
aF0.0
aF0.0
aF2.0
aF0.0
aF1.0
aF2.0
aF0.0
aF1.0
aF3.0
aF0.0
aF2.0
aF0.0
aF0.0
aF0.0
aF0.0
aF0.0
aF0.0
aF0.0
aF0.0
aF0.0
aF0.0
aF0.0
aF1.0
aF2.0
aF0.0
aF1.0
aF0.0
aF0.0
aF0.0
aF0.0
aF0.0
aF0.0
aF2.0
aF0.0
aF0.0
aF0.0
aF0.0
atp212
Rp213
(dp214
g6
F0.0
sg7
F72.796
sg8
I62
sg9
g10
(g11
g12
Ntp215
Rp216
(dp217
g16
g18
(g22
S'\x87\x05\xc0\x94Gq\xa4?'
p218
tp219
Rp220
sg17
(F-71.30876999999994
g18
(g22
S'&\x90\x113\xa3\x8d\xd2?'
p221
tp222
Rp223
tp224
sbsg29
F343.98885893821716
sg30
I170855062
sg31
F343.98885893821716
sbag1
((lp225
F0.0
aF0.0
aF0.0
aF0.0
aF0.0
aF0.0
aF2.0
aF0.0
aF0.0
aF0.0
aF0.0
aF2.0
aF0.0
aF0.0
aF0.0
aF0.0
aF0.0
aF0.0
aF0.0
aF0.0
aF0.0
aF0.0
aF0.0
aF2.0
aF0.0
aF3.0
aF0.0
aF2.0
aF2.0
aF0.0
aF2.0
aF0.0
aF0.0
aF2.0
aF2.0
aF0.0
aF0.0
aF2.0
aF0.0
aF1.0
aF3.0
aF0.0
aF0.0
aF0.0
aF0.0
aF0.0
aF0.0
aF0.0
aF0.0
aF0.0
aF4.0
aF1.0
aF3.0
aF0.0
aF0.0
aF0.0
aF0.0
aF1.0
aF0.0
aF0.0
aF0.0
aF0.0
aF0.0
aF0.0
aF1.0
aF0.0
aF2.0
aF0.0
aF0.0
aF0.0
aF3.0
aF0.0
aF1.0
aF2.0
aF0.0
aF1.0
aF0.0
aF0.0
aF2.0
aF0.0
aF0.0
aF0.0
aF0.0
aF0.0
aF0.0
aF0.0
aF0.0
aF0.0
aF0.0
aF0.0
aF1.0
aF2.0
aF0.0
aF1.0
aF0.0
aF0.0
aF0.0
aF0.0
aF0.0
aF0.0
aF2.0
aF0.0
aF0.0
aF0.0
aF0.0
atp226
Rp227
(dp228
g6
F0.0
sg7
F48.549
sg8
I52
sg9
g10
(g11
g12
Ntp229
Rp230
(dp231
g16
g18
(g22
S'\xd5\x11\x87jr5\xa4?'
p232
tp233
Rp234
sg17
(F-36.91285000000001
g18
(g22
S'S\x12\xd0\xfd\x06x\xc7?'
p235
tp236
Rp237
tp238
sbsg29
F294.93571305274963
sg30
I184631580
sg31
F294.93571305274963
sbag1
((lp239
F0.0
aF0.0
aF0.0
aF0.0
aF0.0
aF0.0
aF1.0
aF0.0
aF0.0
aF0.0
aF0.0
aF2.0
aF0.0
aF0.0
aF0.0
aF0.0
aF0.0
aF0.0
aF0.0
aF0.0
aF0.0
aF0.0
aF0.0
aF2.0
aF0.0
aF2.0
aF0.0
aF2.0
aF2.0
aF0.0
aF2.0
aF0.0
aF0.0
aF0.0
aF2.0
aF0.0
aF0.0
aF2.0
aF0.0
aF0.0
aF2.0
aF0.0
aF0.0
aF0.0
aF0.0
aF0.0
aF0.0
aF0.0
aF2.0
aF2.0
aF0.0
aF0.0
aF1.0
aF0.0
aF0.0
aF0.0
aF0.0
aF1.0
aF0.0
aF0.0
aF0.0
aF0.0
aF0.0
aF1.0
aF0.0
aF4.0
aF2.0
aF0.0
aF0.0
aF0.0
aF3.0
aF0.0
aF1.0
aF2.0
aF0.0
aF1.0
aF0.0
aF0.0
aF2.0
aF0.0
aF0.0
aF0.0
aF0.0
aF0.0
aF0.0
aF0.0
aF0.0
aF0.0
aF0.0
aF0.0
aF1.0
aF2.0
aF0.0
aF1.0
aF0.0
aF0.0
aF0.0
aF0.0
aF0.0
aF0.0
aF2.0
aF0.0
aF0.0
aF0.0
aF0.0
atp240
Rp241
(dp242
g6
F0.0
sg29
F248.21572303771973
sg31
F248.21572303771973
sg7
F12.553
sg9
g10
(g11
g12
Ntp243
Rp244
(dp245
g16
g18
(g22
S'\xd9>\xef\xb3\xb2V\xa3?'
p246
tp247
Rp248
sg17
(F-41.92160000000002
g18
(g22
S'\x9a\xa3g\x01\xf4$\xcb?'
p249
tp250
Rp251
tp252
sbsg8
I61
sg30
I916415736
sbag1
((lp253
F0.0
aF2.0
aF0.0
aF0.0
aF0.0
aF0.0
aF2.0
aF0.0
aF0.0
aF0.0
aF0.0
aF2.0
aF0.0
aF0.0
aF0.0
aF0.0
aF0.0
aF0.0
aF0.0
aF0.0
aF2.0
aF1.0
aF0.0
aF0.0
aF0.0
aF2.0
aF0.0
aF2.0
aF2.0
aF0.0
aF2.0
aF0.0
aF0.0
aF2.0
aF2.0
aF0.0
aF0.0
aF2.0
aF0.0
aF1.0
aF3.0
aF0.0
aF0.0
aF0.0
aF0.0
aF0.0
aF2.0
aF0.0
aF2.0
aF2.0
aF0.0
aF1.0
aF3.0
aF0.0
aF0.0
aF0.0
aF0.0
aF1.0
aF0.0
aF0.0
aF0.0
aF0.0
aF0.0
aF0.0
aF1.0
aF0.0
aF2.0
aF0.0
aF0.0
aF0.0
aF2.0
aF0.0
aF1.0
aF2.0
aF0.0
aF1.0
aF0.0
aF0.0
aF2.0
aF0.0
aF0.0
aF0.0
aF0.0
aF0.0
aF0.0
aF0.0
aF0.0
aF0.0
aF0.0
aF0.0
aF1.0
aF2.0
aF0.0
aF1.0
aF0.0
aF0.0
aF0.0
aF0.0
aF0.0
aF0.0
aF2.0
aF0.0
aF0.0
aF0.0
aF0.0
atp254
Rp255
(dp256
g6
F0.0
sg7
F61.569
sg8
I58
sg9
g10
(g11
g12
Ntp257
Rp258
(dp259
g16
g18
(g22
S'\xa4\xda\xd85\xe7F\xa3?'
p260
tp261
Rp262
sg17
(F-59.67409999999997
g18
(g22
S'\x82\xa9\x8c\xb0.\xa6\xd0?'
p263
tp264
Rp265
tp266
sbsg29
F315.61314511299133
sg30
I194354812
sg31
F315.61314511299133
sbag1
((lp267
F0.0
aF0.0
aF0.0
aF0.0
aF0.0
aF0.0
aF1.0
aF0.0
aF0.0
aF0.0
aF1.0
aF0.0
aF0.0
aF0.0
aF0.0
aF0.0
aF0.0
aF0.0
aF0.0
aF0.0
aF0.0
aF0.0
aF0.0
aF2.0
aF0.0
aF3.0
aF0.0
aF2.0
aF2.0
aF0.0
aF2.0
aF0.0
aF0.0
aF0.0
aF2.0
aF0.0
aF0.0
aF2.0
aF0.0
aF1.0
aF3.0
aF0.0
aF0.0
aF0.0
aF0.0
aF0.0
aF0.0
aF0.0
aF2.0
aF2.0
aF0.0
aF0.0
aF1.0
aF0.0
aF0.0
aF0.0
aF0.0
aF1.0
aF0.0
aF0.0
aF0.0
aF0.0
aF0.0
aF0.0
aF1.0
aF0.0
aF2.0
aF0.0
aF0.0
aF0.0
aF3.0
aF0.0
aF1.0
aF2.0
aF0.0
aF1.0
aF0.0
aF0.0
aF2.0
aF0.0
aF0.0
aF0.0
aF0.0
aF0.0
aF0.0
aF0.0
aF0.0
aF0.0
aF0.0
aF0.0
aF1.0
aF2.0
aF0.0
aF1.0
aF0.0
aF0.0
aF0.0
aF0.0
aF0.0
aF0.0
aF2.0
aF0.0
aF0.0
aF0.0
aF0.0
atp268
Rp269
(dp270
g6
F0.0
sg7
F43.042
sg8
I53
sg9
g10
(g11
g12
Ntp271
Rp272
(dp273
g16
g18
(g22
S'HV\xbb\x02\xe2F\xa3?'
p274
tp275
Rp276
sg17
(F-39.41657000000003
g18
(g22
S'\xafn\x87sX\x0f\xc9?'
p277
tp278
Rp279
tp280
sbsg29
F235.615483045578
sg30
I727240116
sg31
F235.615483045578
sbag1
((lp281
F0.0
aF2.0
aF0.0
aF0.0
aF0.0
aF0.0
aF1.0
aF0.0
aF0.0
aF0.0
aF0.0
aF2.0
aF0.0
aF0.0
aF0.0
aF0.0
aF0.0
aF0.0
aF0.0
aF0.0
aF0.0
aF0.0
aF0.0
aF2.0
aF0.0
aF3.0
aF0.0
aF2.0
aF2.0
aF0.0
aF2.0
aF0.0
aF0.0
aF0.0
aF2.0
aF0.0
aF0.0
aF2.0
aF0.0
aF0.0
aF2.0
aF0.0
aF0.0
aF0.0
aF0.0
aF0.0
aF2.0
aF0.0
aF2.0
aF2.0
aF0.0
aF1.0
aF3.0
aF0.0
aF0.0
aF0.0
aF0.0
aF1.0
aF0.0
aF0.0
aF0.0
aF0.0
aF0.0
aF0.0
aF1.0
aF0.0
aF2.0
aF0.0
aF0.0
aF2.0
aF2.0
aF0.0
aF1.0
aF2.0
aF0.0
aF1.0
aF0.0
aF0.0
aF2.0
aF0.0
aF0.0
aF0.0
aF0.0
aF0.0
aF0.0
aF0.0
aF0.0
aF0.0
aF0.0
aF0.0
aF1.0
aF2.0
aF0.0
aF1.0
aF0.0
aF0.0
aF0.0
aF0.0
aF0.0
aF0.0
aF2.0
aF0.0
aF0.0
aF0.0
aF0.0
atp282
Rp283
(dp284
g6
F0.0
sg7
F44.851
sg8
I60
sg9
g10
(g11
g12
Ntp285
Rp286
(dp287
g16
g18
(g22
S'\x1a\xeb\xe1\xb6P\x98\xa1?'
p288
tp289
Rp290
sg17
(F-57.928029999999964
g18
(g22
S'S\x0bs\x93v\x89\xd0?'
p291
tp292
Rp293
tp294
sbsg29
F256.10954999923706
sg30
I516785520
sg31
F256.10954999923706
sbag1
((lp295
F0.0
aF0.0
aF0.0
aF0.0
aF0.0
aF0.0
aF1.0
aF0.0
aF0.0
aF0.0
aF1.0
aF0.0
aF0.0
aF0.0
aF0.0
aF0.0
aF0.0
aF0.0
aF0.0
aF0.0
aF0.0
aF0.0
aF0.0
aF2.0
aF0.0
aF3.0
aF0.0
aF0.0
aF3.0
aF0.0
aF0.0
aF0.0
aF0.0
aF2.0
aF2.0
aF0.0
aF0.0
aF2.0
aF0.0
aF1.0
aF3.0
aF0.0
aF0.0
aF0.0
aF0.0
aF0.0
aF0.0
aF0.0
aF0.0
aF0.0
aF4.0
aF0.0
aF1.0
aF0.0
aF0.0
aF0.0
aF0.0
aF1.0
aF0.0
aF0.0
aF0.0
aF0.0
aF0.0
aF0.0
aF1.0
aF0.0
aF2.0
aF0.0
aF0.0
aF0.0
aF3.0
aF0.0
aF1.0
aF2.0
aF0.0
aF1.0
aF0.0
aF0.0
aF2.0
aF0.0
aF0.0
aF0.0
aF0.0
aF0.0
aF0.0
aF0.0
aF0.0
aF0.0
aF0.0
aF0.0
aF1.0
aF2.0
aF0.0
aF1.0
aF0.0
aF0.0
aF0.0
aF0.0
aF0.0
aF0.0
aF2.0
aF0.0
aF0.0
aF0.0
aF0.0
atp296
Rp297
(dp298
g6
F0.0
sg7
F48.825
sg8
I55
sg9
g10
(g11
g12
Ntp299
Rp300
(dp301
g16
g18
(g22
S'\xe1o\xf9\xea\xe39\xa1?'
p302
tp303
Rp304
sg17
(F-36.521620000000006
g18
(g22
S'84\xd6\xd3\xc7\xbd\xc6?'
p305
tp306
Rp307
tp308
sbsg29
F328.31369280815125
sg30
I587095444
sg31
F328.31369280815125
sbag1
((lp309
F0.0
aF0.0
aF0.0
aF0.0
aF0.0
aF0.0
aF1.0
aF0.0
aF0.0
aF0.0
aF0.0
aF2.0
aF0.0
aF0.0
aF0.0
aF0.0
aF0.0
aF0.0
aF0.0
aF0.0
aF0.0
aF0.0
aF0.0
aF2.0
aF0.0
aF3.0
aF0.0
aF2.0
aF2.0
aF0.0
aF0.0
aF0.0
aF0.0
aF0.0
aF1.0
aF0.0
aF0.0
aF2.0
aF0.0
aF1.0
aF3.0
aF0.0
aF0.0
aF0.0
aF0.0
aF0.0
aF0.0
aF0.0
aF0.0
aF0.0
aF4.0
aF0.0
aF1.0
aF0.0
aF0.0
aF0.0
aF0.0
aF1.0
aF0.0
aF0.0
aF0.0
aF0.0
aF0.0
aF0.0
aF1.0
aF0.0
aF2.0
aF0.0
aF0.0
aF0.0
aF3.0
aF0.0
aF1.0
aF2.0
aF0.0
aF1.0
aF0.0
aF0.0
aF2.0
aF0.0
aF0.0
aF0.0
aF0.0
aF0.0
aF0.0
aF0.0
aF0.0
aF0.0
aF0.0
aF0.0
aF1.0
aF2.0
aF0.0
aF1.0
aF0.0
aF0.0
aF0.0
aF0.0
aF0.0
aF0.0
aF2.0
aF0.0
aF0.0
aF0.0
aF0.0
atp310
Rp311
(dp312
g6
F0.0
sg7
F72.223
sg8
I62
sg9
g10
(g11
g12
Ntp313
Rp314
(dp315
g16
g18
(g22
S'\xfb\x0e\xad)\x08\x11\xa1?'
p316
tp317
Rp318
sg17
(F-28.541840000000015
g18
(g22
S'Y\xff\x9c_\x1b\xe5\xc2?'
p319
tp320
Rp321
tp322
sbsg29
F313.33933687210083
sg30
I396861262
sg31
F313.33933687210083
sbag1
((lp323
F0.0
aF0.0
aF0.0
aF0.0
aF0.0
aF0.0
aF1.0
aF0.0
aF0.0
aF0.0
aF1.0
aF0.0
aF0.0
aF0.0
aF0.0
aF0.0
aF0.0
aF0.0
aF0.0
aF0.0
aF0.0
aF0.0
aF0.0
aF2.0
aF0.0
aF3.0
aF0.0
aF0.0
aF3.0
aF0.0
aF0.0
aF0.0
aF0.0
aF0.0
aF1.0
aF0.0
aF0.0
aF2.0
aF0.0
aF1.0
aF3.0
aF0.0
aF0.0
aF0.0
aF0.0
aF0.0
aF0.0
aF0.0
aF0.0
aF0.0
aF4.0
aF1.0
aF3.0
aF0.0
aF0.0
aF0.0
aF0.0
aF1.0
aF0.0
aF0.0
aF0.0
aF0.0
aF0.0
aF0.0
aF1.0
aF0.0
aF2.0
aF0.0
aF0.0
aF0.0
aF3.0
aF0.0
aF0.0
aF3.0
aF0.0
aF1.0
aF0.0
aF0.0
aF2.0
aF0.0
aF0.0
aF0.0
aF0.0
aF0.0
aF0.0
aF0.0
aF0.0
aF0.0
aF0.0
aF0.0
aF1.0
aF2.0
aF0.0
aF1.0
aF0.0
aF0.0
aF0.0
aF0.0
aF0.0
aF0.0
aF2.0
aF0.0
aF0.0
aF0.0
aF0.0
atp324
Rp325
(dp326
g6
F0.0
sg7
F50.978
sg8
I54
sg9
g10
(g11
g12
Ntp327
Rp328
(dp329
g16
g18
(g22
S'\xcd8\xf4\xef\xef\x08\xa1?'
p330
tp331
Rp332
sg17
(F-27.680450000000008
g18
(g22
S'\xb8\xe7 1\xcc\xb8\xc0?'
p333
tp334
Rp335
tp336
sbsg29
F297.4437210559845
sg30
I214999808
sg31
F297.4437210559845
sbag1
((lp337
F0.0
aF0.0
aF0.0
aF0.0
aF0.0
aF0.0
aF1.0
aF0.0
aF0.0
aF0.0
aF1.0
aF0.0
aF0.0
aF0.0
aF0.0
aF0.0
aF0.0
aF0.0
aF0.0
aF0.0
aF0.0
aF0.0
aF0.0
aF2.0
aF0.0
aF3.0
aF0.0
aF0.0
aF3.0
aF0.0
aF0.0
aF0.0
aF0.0
aF0.0
aF1.0
aF0.0
aF0.0
aF1.0
aF0.0
aF0.0
aF1.0
aF0.0
aF0.0
aF0.0
aF0.0
aF0.0
aF0.0
aF0.0
aF0.0
aF0.0
aF4.0
aF1.0
aF3.0
aF0.0
aF2.0
aF0.0
aF0.0
aF1.0
aF0.0
aF0.0
aF0.0
aF0.0
aF0.0
aF1.0
aF0.0
aF4.0
aF2.0
aF0.0
aF0.0
aF0.0
aF3.0
aF0.0
aF1.0
aF2.0
aF0.0
aF1.0
aF0.0
aF0.0
aF2.0
aF0.0
aF0.0
aF0.0
aF0.0
aF0.0
aF0.0
aF0.0
aF0.0
aF0.0
aF0.0
aF0.0
aF1.0
aF2.0
aF0.0
aF1.0
aF0.0
aF0.0
aF0.0
aF0.0
aF0.0
aF0.0
aF2.0
aF0.0
aF0.0
aF0.0
aF0.0
atp338
Rp339
(dp340
g6
F0.0
sg7
F76.31
sg8
I56
sg9
g10
(g11
g12
Ntp341
Rp342
(dp343
g16
g18
(g22
S"'=A\xa7r\xdd\xa0?"
p344
tp345
Rp346
sg17
(F-26.824930000000002
g18
(g22
S'\xd2G\xf1\xf0\x98"\xbf?'
p347
tp348
Rp349
tp350
sbsg29
F347.45827412605286
sg30
I143968814
sg31
F347.45827412605286
sbag1
((lp351
F0.0
aF0.0
aF0.0
aF0.0
aF0.0
aF0.0
aF1.0
aF0.0
aF0.0
aF0.0
aF0.0
aF2.0
aF0.0
aF0.0
aF0.0
aF0.0
aF0.0
aF0.0
aF0.0
aF0.0
aF0.0
aF0.0
aF0.0
aF2.0
aF0.0
aF3.0
aF0.0
aF2.0
aF2.0
aF0.0
aF2.0
aF0.0
aF0.0
aF0.0
aF2.0
aF0.0
aF0.0
aF2.0
aF0.0
aF0.0
aF2.0
aF0.0
aF0.0
aF0.0
aF0.0
aF0.0
aF0.0
aF0.0
aF2.0
aF2.0
aF0.0
aF0.0
aF1.0
aF0.0
aF0.0
aF0.0
aF0.0
aF1.0
aF0.0
aF0.0
aF0.0
aF0.0
aF0.0
aF1.0
aF0.0
aF4.0
aF2.0
aF0.0
aF0.0
aF0.0
aF3.0
aF0.0
aF1.0
aF2.0
aF0.0
aF1.0
aF0.0
aF0.0
aF2.0
aF0.0
aF0.0
aF0.0
aF0.0
aF0.0
aF0.0
aF0.0
aF0.0
aF0.0
aF0.0
aF0.0
aF1.0
aF2.0
aF0.0
aF1.0
aF0.0
aF0.0
aF0.0
aF0.0
aF0.0
aF2.0
aF2.0
aF0.0
aF0.0
aF0.0
aF0.0
atp352
Rp353
(dp354
g6
F0.0
sg7
F47.851
sg8
I63
sg9
g10
(g11
g12
Ntp355
Rp356
(dp357
g16
g18
(g22
S'\xd78\xc5\x82\x93\xa2\xa0?'
p358
tp359
Rp360
sg17
(F-41.52740000000003
g18
(g22
S'\x0b\xab\xdd9`^\xca?'
p361
tp362
Rp363
tp364
sbsg29
F323.64739203453064
sg30
I130939114
sg31
F323.64739203453064
sbag1
((lp365
F0.0
aF2.0
aF0.0
aF0.0
aF0.0
aF0.0
aF1.0
aF0.0
aF0.0
aF0.0
aF1.0
aF0.0
aF0.0
aF0.0
aF0.0
aF0.0
aF0.0
aF0.0
aF0.0
aF0.0
aF0.0
aF0.0
aF0.0
aF2.0
aF0.0
aF2.0
aF0.0
aF2.0
aF2.0
aF0.0
aF2.0
aF0.0
aF0.0
aF2.0
aF2.0
aF0.0
aF0.0
aF2.0
aF0.0
aF0.0
aF2.0
aF0.0
aF0.0
aF2.0
aF2.0
aF0.0
aF2.0
aF0.0
aF2.0
aF2.0
aF0.0
aF1.0
aF3.0
aF0.0
aF2.0
aF0.0
aF0.0
aF1.0
aF0.0
aF0.0
aF0.0
aF0.0
aF0.0
aF1.0
aF0.0
aF4.0
aF0.0
aF3.0
aF0.0
aF0.0
aF2.0
aF0.0
aF1.0
aF2.0
aF0.0
aF1.0
aF0.0
aF0.0
aF2.0
aF0.0
aF0.0
aF0.0
aF0.0
aF0.0
aF0.0
aF0.0
aF0.0
aF0.0
aF0.0
aF0.0
aF1.0
aF2.0
aF0.0
aF1.0
aF0.0
aF0.0
aF0.0
aF0.0
aF0.0
aF2.0
aF2.0
aF0.0
aF0.0
aF0.0
aF0.0
atp366
Rp367
(dp368
g6
F0.0
sg7
F43.94
sg8
I43
sg9
g10
(g11
g12
Ntp369
Rp370
(dp371
g16
g18
(g22
S'\xbc{&\xfa\xf5Q\xa0?'
p372
tp373
Rp374
sg17
(F-68.03022999999999
g18
(g22
S'\x04\x8a\x82S\xde\x08\xd2?'
p375
tp376
Rp377
tp378
sbsg29
F296.25709891319275
sg30
I207962932
sg31
F296.25709891319275
sbag1
((lp379
F0.0
aF2.0
aF0.0
aF0.0
aF0.0
aF0.0
aF2.0
aF0.0
aF0.0
aF0.0
aF0.0
aF2.0
aF0.0
aF0.0
aF0.0
aF0.0
aF0.0
aF0.0
aF0.0
aF0.0
aF0.0
aF0.0
aF0.0
aF2.0
aF0.0
aF2.0
aF0.0
aF2.0
aF2.0
aF0.0
aF2.0
aF0.0
aF0.0
aF0.0
aF2.0
aF0.0
aF0.0
aF2.0
aF0.0
aF0.0
aF2.0
aF0.0
aF0.0
aF0.0
aF0.0
aF0.0
aF0.0
aF0.0
aF2.0
aF2.0
aF0.0
aF0.0
aF1.0
aF0.0
aF0.0
aF0.0
aF0.0
aF1.0
aF0.0
aF0.0
aF0.0
aF0.0
aF0.0
aF0.0
aF1.0
aF0.0
aF2.0
aF0.0
aF0.0
aF2.0
aF2.0
aF0.0
aF1.0
aF2.0
aF0.0
aF1.0
aF0.0
aF0.0
aF2.0
aF0.0
aF0.0
aF0.0
aF0.0
aF0.0
aF0.0
aF0.0
aF0.0
aF0.0
aF0.0
aF0.0
aF1.0
aF2.0
aF0.0
aF1.0
aF0.0
aF0.0
aF0.0
aF0.0
aF0.0
aF0.0
aF2.0
aF0.0
aF0.0
aF0.0
aF0.0
atp380
Rp381
(dp382
g6
F0.0
sg7
F45.686
sg8
I61
sg9
g10
(g11
g12
Ntp383
Rp384
(dp385
g16
g18
(g22
S'\xc6\xc1\xa0\xa7\x155\xa0?'
p386
tp387
Rp388
sg17
(F-55.285250000000005
g18
(g22
S']\xd6\xec\x96S\x1e\xd0?'
p389
tp390
Rp391
tp392
sbsg29
F311.2101709842682
sg30
I278505468
sg31
F311.2101709842682
sbag1
((lp393
F0.0
aF0.0
aF0.0
aF0.0
aF0.0
aF0.0
aF1.0
aF0.0
aF0.0
aF0.0
aF0.0
aF2.0
aF0.0
aF0.0
aF0.0
aF0.0
aF0.0
aF0.0
aF0.0
aF0.0
aF0.0
aF0.0
aF0.0
aF2.0
aF0.0
aF3.0
aF0.0
aF2.0
aF2.0
aF0.0
aF2.0
aF0.0
aF0.0
aF2.0
aF2.0
aF0.0
aF0.0
aF2.0
aF0.0
aF0.0
aF2.0
aF0.0
aF0.0
aF0.0
aF0.0
aF0.0
aF0.0
aF0.0
aF2.0
aF2.0
aF0.0
aF1.0
aF3.0
aF0.0
aF0.0
aF0.0
aF0.0
aF1.0
aF0.0
aF0.0
aF0.0
aF0.0
aF0.0
aF1.0
aF0.0
aF4.0
aF0.0
aF3.0
aF0.0
aF0.0
aF2.0
aF0.0
aF1.0
aF2.0
aF0.0
aF1.0
aF0.0
aF0.0
aF2.0
aF0.0
aF0.0
aF0.0
aF0.0
aF0.0
aF0.0
aF0.0
aF0.0
aF0.0
aF0.0
aF0.0
aF1.0
aF2.0
aF0.0
aF1.0
aF0.0
aF0.0
aF0.0
aF0.0
aF0.0
aF2.0
aF2.0
aF0.0
aF0.0
aF0.0
aF0.0
atp394
Rp395
(dp396
g6
F0.0
sg7
F38.318
sg8
I61
sg9
g10
(g11
g12
Ntp397
Rp398
(dp399
g16
g18
(g22
S'0\xd3\xc7\xa1\xa3)\x9f?'
p400
tp401
Rp402
sg17
(F-46.52945000000004
g18
(g22
S'\xf8\x95\xa2x\xe6\xa1\xcc?'
p403
tp404
Rp405
tp406
sbsg29
F263.90877389907837
sg30
I238791998
sg31
F263.90877389907837
sbag1
((lp407
F0.0
aF2.0
aF0.0
aF0.0
aF0.0
aF0.0
aF2.0
aF0.0
aF0.0
aF0.0
aF0.0
aF2.0
aF0.0
aF0.0
aF0.0
aF0.0
aF0.0
aF0.0
aF0.0
aF0.0
aF0.0
aF0.0
aF0.0
aF2.0
aF0.0
aF2.0
aF0.0
aF2.0
aF2.0
aF0.0
aF2.0
aF0.0
aF0.0
aF0.0
aF2.0
aF0.0
aF0.0
aF2.0
aF0.0
aF0.0
aF2.0
aF0.0
aF0.0
aF0.0
aF0.0
aF0.0
aF0.0
aF0.0
aF2.0
aF2.0
aF0.0
aF0.0
aF1.0
aF0.0
aF0.0
aF0.0
aF0.0
aF1.0
aF0.0
aF0.0
aF0.0
aF0.0
aF0.0
aF1.0
aF0.0
aF4.0
aF2.0
aF0.0
aF0.0
aF0.0
aF3.0
aF0.0
aF1.0
aF2.0
aF0.0
aF1.0
aF0.0
aF0.0
aF2.0
aF0.0
aF0.0
aF0.0
aF0.0
aF0.0
aF0.0
aF0.0
aF0.0
aF0.0
aF0.0
aF0.0
aF1.0
aF2.0
aF0.0
aF1.0
aF0.0
aF0.0
aF0.0
aF0.0
aF0.0
aF0.0
aF2.0
aF0.0
aF0.0
aF0.0
aF0.0
atp408
Rp409
(dp410
g6
F0.0
sg7
F44.68
sg8
I63
sg9
g10
(g11
g12
Ntp411
Rp412
(dp413
g16
g18
(g22
S'\x85\xe2\x100\xd7\xd1\x9e?'
p414
tp415
Rp416
sg17
(F-51.46861000000003
g18
(g22
S'e\xfa;3\xe1k\xce?'
p417
tp418
Rp419
tp420
sbsg29
F286.99210715293884
sg30
I352225122
sg31
F286.99210715293884
sbag1
((lp421
F0.0
aF0.0
aF0.0
aF0.0
aF0.0
aF0.0
aF1.0
aF0.0
aF0.0
aF0.0
aF0.0
aF2.0
aF0.0
aF0.0
aF0.0
aF0.0
aF0.0
aF0.0
aF0.0
aF0.0
aF0.0
aF0.0
aF0.0
aF2.0
aF0.0
aF2.0
aF0.0
aF2.0
aF2.0
aF0.0
aF2.0
aF0.0
aF0.0
aF2.0
aF2.0
aF0.0
aF0.0
aF2.0
aF0.0
aF0.0
aF2.0
aF0.0
aF0.0
aF0.0
aF0.0
aF0.0
aF0.0
aF0.0
aF2.0
aF2.0
aF0.0
aF1.0
aF3.0
aF0.0
aF0.0
aF0.0
aF0.0
aF1.0
aF0.0
aF0.0
aF0.0
aF0.0
aF0.0
aF0.0
aF1.0
aF0.0
aF2.0
aF0.0
aF0.0
aF0.0
aF3.0
aF0.0
aF1.0
aF2.0
aF0.0
aF1.0
aF0.0
aF0.0
aF2.0
aF0.0
aF0.0
aF0.0
aF0.0
aF0.0
aF0.0
aF0.0
aF0.0
aF0.0
aF0.0
aF0.0
aF1.0
aF2.0
aF0.0
aF1.0
aF0.0
aF0.0
aF0.0
aF0.0
aF0.0
aF0.0
aF2.0
aF0.0
aF0.0
aF0.0
aF0.0
atp422
Rp423
(dp424
g6
F0.0
sg7
F49.506
sg8
I62
sg9
g10
(g11
g12
Ntp425
Rp426
(dp427
g16
g18
(g22
S'\x9a\xb6\xd1\xb8\xe2\xce\x9e?'
p428
tp429
Rp430
sg17
(F-43.107910000000004
g18
(g22
S'\xe5\xbf4\x9f\x81\xa9\xcb?'
p431
tp432
Rp433
tp434
sbsg29
F342.74076890945435
sg30
I375835614
sg31
F342.74076890945435
sbag1
((lp435
F0.0
aF0.0
aF0.0
aF0.0
aF0.0
aF0.0
aF1.0
aF0.0
aF0.0
aF0.0
aF1.0
aF0.0
aF0.0
aF0.0
aF0.0
aF0.0
aF0.0
aF0.0
aF0.0
aF0.0
aF2.0
aF0.0
aF0.0
aF2.0
aF0.0
aF2.0
aF0.0
aF2.0
aF2.0
aF0.0
aF2.0
aF0.0
aF0.0
aF2.0
aF2.0
aF0.0
aF0.0
aF2.0
aF0.0
aF0.0
aF2.0
aF0.0
aF0.0
aF0.0
aF0.0
aF0.0
aF2.0
aF0.0
aF2.0
aF2.0
aF0.0
aF1.0
aF3.0
aF0.0
aF2.0
aF0.0
aF0.0
aF1.0
aF0.0
aF0.0
aF0.0
aF0.0
aF0.0
aF1.0
aF0.0
aF4.0
aF2.0
aF0.0
aF0.0
aF2.0
aF2.0
aF0.0
aF1.0
aF2.0
aF0.0
aF1.0
aF0.0
aF0.0
aF2.0
aF0.0
aF0.0
aF0.0
aF0.0
aF0.0
aF0.0
aF0.0
aF0.0
aF0.0
aF0.0
aF0.0
aF1.0
aF2.0
aF0.0
aF1.0
aF0.0
aF0.0
aF0.0
aF0.0
aF0.0
aF2.0
aF2.0
aF0.0
aF0.0
aF0.0
aF0.0
atp436
Rp437
(dp438
g6
F0.0
sg7
F44.317
sg8
I55
sg9
g10
(g11
g12
Ntp439
Rp440
(dp441
g16
g18
(g22
S'Z\xef\xf7D\x97+\x9e?'
p442
tp443
Rp444
sg17
(F-55.12955000000004
g18
(g22
S'\xe3\r_\xe4\xc3\x9b\xcf?'
p445
tp446
Rp447
tp448
sbsg29
F219.01090097427368
sg30
I145768101
sg31
F219.01090097427368
sbag1
((lp449
F0.0
aF2.0
aF0.0
aF0.0
aF0.0
aF0.0
aF1.0
aF0.0
aF0.0
aF0.0
aF0.0
aF2.0
aF0.0
aF0.0
aF0.0
aF0.0
aF0.0
aF0.0
aF0.0
aF0.0
aF0.0
aF0.0
aF0.0
aF2.0
aF0.0
aF2.0
aF0.0
aF2.0
aF2.0
aF0.0
aF2.0
aF0.0
aF0.0
aF0.0
aF2.0
aF0.0
aF0.0
aF2.0
aF0.0
aF0.0
aF2.0
aF0.0
aF0.0
aF0.0
aF0.0
aF0.0
aF2.0
aF0.0
aF2.0
aF2.0
aF0.0
aF1.0
aF3.0
aF0.0
aF0.0
aF0.0
aF0.0
aF1.0
aF0.0
aF0.0
aF0.0
aF0.0
aF0.0
aF0.0
aF1.0
aF0.0
aF2.0
aF0.0
aF0.0
aF2.0
aF2.0
aF0.0
aF1.0
aF2.0
aF0.0
aF1.0
aF0.0
aF0.0
aF2.0
aF0.0
aF0.0
aF0.0
aF0.0
aF0.0
aF0.0
aF0.0
aF0.0
aF0.0
aF0.0
aF0.0
aF1.0
aF2.0
aF0.0
aF1.0
aF0.0
aF0.0
aF0.0
aF0.0
aF0.0
aF0.0
aF2.0
aF0.0
aF0.0
aF0.0
aF0.0
atp450
Rp451
(dp452
g6
F0.0
sg7
F38.576
sg8
I59
sg9
g10
(g11
g12
Ntp453
Rp454
(dp455
g16
g18
(g22
S'N,\xa5\xc8\x1b\xaf\x9d?'
p456
tp457
Rp458
sg17
(F-59.91702999999998
g18
(g22
S'(\xd3\xe5@\xff\x16\xd1?'
p459
tp460
Rp461
tp462
sbsg29
F304.3602759838104
sg30
I600923109
sg31
F304.3602759838104
sbag1
((lp463
F0.0
aF0.0
aF0.0
aF0.0
aF0.0
aF0.0
aF1.0
aF0.0
aF0.0
aF0.0
aF1.0
aF0.0
aF0.0
aF0.0
aF0.0
aF0.0
aF0.0
aF0.0
aF0.0
aF0.0
aF0.0
aF0.0
aF0.0
aF2.0
aF0.0
aF3.0
aF0.0
aF2.0
aF2.0
aF0.0
aF2.0
aF0.0
aF0.0
aF0.0
aF2.0
aF0.0
aF0.0
aF2.0
aF0.0
aF0.0
aF2.0
aF0.0
aF0.0
aF0.0
aF0.0
aF0.0
aF0.0
aF0.0
aF0.0
aF0.0
aF4.0
aF1.0
aF3.0
aF0.0
aF0.0
aF0.0
aF0.0
aF1.0
aF0.0
aF0.0
aF0.0
aF0.0
aF0.0
aF0.0
aF1.0
aF0.0
aF2.0
aF0.0
aF0.0
aF0.0
aF3.0
aF0.0
aF1.0
aF2.0
aF0.0
aF1.0
aF0.0
aF0.0
aF2.0
aF0.0
aF0.0
aF0.0
aF0.0
aF0.0
aF0.0
aF0.0
aF0.0
aF0.0
aF0.0
aF0.0
aF1.0
aF2.0
aF0.0
aF1.0
aF0.0
aF0.0
aF0.0
aF0.0
aF0.0
aF0.0
aF2.0
aF0.0
aF0.0
aF0.0
aF0.0
atp464
Rp465
(dp466
g6
F0.0
sg7
F43.258
sg8
I57
sg9
g10
(g11
g12
Ntp467
Rp468
(dp469
g16
g18
(g22
S'\xa8}\x83\xfc\xfbq\x9d?'
p470
tp471
Rp472
sg17
(F-38.111140000000034
g18
(g22
S'\xf1\xb6\x83\x06\xbb]\xc8?'
p473
tp474
Rp475
tp476
sbsg29
F341.4291250705719
sg30
I179070550
sg31
F341.4291250705719
sbag1
((lp477
F0.0
aF0.0
aF0.0
aF0.0
aF0.0
aF0.0
aF2.0
aF0.0
aF0.0
aF0.0
aF0.0
aF2.0
aF0.0
aF0.0
aF0.0
aF0.0
aF0.0
aF0.0
aF0.0
aF0.0
aF0.0
aF0.0
aF0.0
aF2.0
aF0.0
aF3.0
aF0.0
aF2.0
aF2.0
aF0.0
aF2.0
aF0.0
aF0.0
aF0.0
aF2.0
aF0.0
aF0.0
aF2.0
aF0.0
aF0.0
aF2.0
aF0.0
aF0.0
aF0.0
aF0.0
aF0.0
aF0.0
aF0.0
aF2.0
aF2.0
aF0.0
aF0.0
aF1.0
aF0.0
aF0.0
aF0.0
aF0.0
aF1.0
aF0.0
aF0.0
aF0.0
aF0.0
aF0.0
aF0.0
aF1.0
aF0.0
aF2.0
aF0.0
aF0.0
aF0.0
aF3.0
aF0.0
aF1.0
aF2.0
aF0.0
aF1.0
aF0.0
aF0.0
aF2.0
aF0.0
aF0.0
aF0.0
aF0.0
aF0.0
aF0.0
aF0.0
aF0.0
aF0.0
aF0.0
aF0.0
aF1.0
aF2.0
aF0.0
aF1.0
aF0.0
aF0.0
aF0.0
aF0.0
aF0.0
aF0.0
aF2.0
aF0.0
aF0.0
aF0.0
aF0.0
atp478
Rp479
(dp480
g6
F0.0
sg7
F46.939
sg8
I60
sg9
g10
(g11
g12
Ntp481
Rp482
(dp483
g16
g18
(g22
S'\x06\xe4\xd7<\x17,\x9c?'
p484
tp485
Rp486
sg17
(F-40.42097000000002
g18
(g22
S'U=\xe0\xf7&\x18\xca?'
p487
tp488
Rp489
tp490
sbsg29
F330.71776485443115
sg30
I277983025
sg31
F330.71776485443115
sbag1
((lp491
F0.0
aF2.0
aF0.0
aF0.0
aF0.0
aF0.0
aF1.0
aF0.0
aF0.0
aF0.0
aF1.0
aF0.0
aF0.0
aF0.0
aF0.0
aF0.0
aF0.0
aF0.0
aF0.0
aF0.0
aF0.0
aF0.0
aF0.0
aF2.0
aF0.0
aF2.0
aF0.0
aF2.0
aF2.0
aF0.0
aF2.0
aF0.0
aF0.0
aF2.0
aF2.0
aF0.0
aF0.0
aF2.0
aF0.0
aF0.0
aF2.0
aF0.0
aF0.0
aF2.0
aF2.0
aF0.0
aF2.0
aF0.0
aF2.0
aF2.0
aF0.0
aF1.0
aF3.0
aF0.0
aF0.0
aF0.0
aF0.0
aF1.0
aF0.0
aF0.0
aF0.0
aF0.0
aF0.0
aF0.0
aF1.0
aF0.0
aF2.0
aF0.0
aF0.0
aF2.0
aF2.0
aF0.0
aF1.0
aF2.0
aF0.0
aF1.0
aF0.0
aF0.0
aF2.0
aF0.0
aF0.0
aF0.0
aF0.0
aF0.0
aF0.0
aF0.0
aF0.0
aF0.0
aF0.0
aF0.0
aF1.0
aF2.0
aF0.0
aF1.0
aF0.0
aF0.0
aF0.0
aF0.0
aF0.0
aF0.0
aF2.0
aF0.0
aF0.0
aF0.0
aF0.0
atp492
Rp493
(dp494
g6
F0.0
sg7
F41.957
sg8
I63
sg9
g10
(g11
g12
Ntp495
Rp496
(dp497
g16
g18
(g22
S'\xf0\xc8\x01\xc48\x03\x9c?'
p498
tp499
Rp500
sg17
(F-66.59952999999996
g18
(g22
S'\xcf\xfe{g\x9b\xe7\xd1?'
p501
tp502
Rp503
tp504
sbsg29
F306.2301959991455
sg30
I103874122
sg31
F306.2301959991455
sbag1
((lp505
F0.0
aF2.0
aF0.0
aF0.0
aF0.0
aF0.0
aF1.0
aF0.0
aF0.0
aF0.0
aF1.0
aF0.0
aF0.0
aF0.0
aF0.0
aF0.0
aF0.0
aF0.0
aF0.0
aF0.0
aF0.0
aF0.0
aF0.0
aF2.0
aF0.0
aF2.0
aF0.0
aF2.0
aF2.0
aF0.0
aF2.0
aF0.0
aF0.0
aF2.0
aF2.0
aF0.0
aF0.0
aF2.0
aF0.0
aF0.0
aF2.0
aF0.0
aF0.0
aF2.0
aF2.0
aF0.0
aF2.0
aF0.0
aF2.0
aF2.0
aF0.0
aF1.0
aF3.0
aF0.0
aF0.0
aF0.0
aF0.0
aF1.0
aF0.0
aF0.0
aF0.0
aF0.0
aF0.0
aF1.0
aF0.0
aF4.0
aF0.0
aF3.0
aF0.0
aF0.0
aF2.0
aF0.0
aF1.0
aF2.0
aF0.0
aF1.0
aF3.0
aF0.0
aF2.0
aF0.0
aF0.0
aF0.0
aF0.0
aF0.0
aF0.0
aF0.0
aF0.0
aF0.0
aF0.0
aF0.0
aF1.0
aF2.0
aF0.0
aF1.0
aF0.0
aF0.0
aF0.0
aF0.0
aF0.0
aF0.0
aF2.0
aF0.0
aF0.0
aF0.0
aF0.0
atp506
Rp507
(dp508
g6
F0.0
sg7
F47.041
sg8
I57
sg9
g10
(g11
g12
Ntp509
Rp510
(dp511
g16
g18
(g22
S'\x9fP\xdeI\x18\xf9\x9b?'
p512
tp513
Rp514
sg17
(F-72.02763999999996
g18
(g22
S'\xae\x02\x9d\x08\x9a\x98\xd2?'
p515
tp516
Rp517
tp518
sbsg29
F307.15341091156006
sg30
I276133044
sg31
F307.15341091156006
sbag1
((lp519
F0.0
aF0.0
aF0.0
aF0.0
aF0.0
aF0.0
aF2.0
aF0.0
aF0.0
aF0.0
aF0.0
aF2.0
aF0.0
aF0.0
aF0.0
aF0.0
aF0.0
aF0.0
aF0.0
aF0.0
aF0.0
aF0.0
aF0.0
aF2.0
aF0.0
aF3.0
aF0.0
aF2.0
aF2.0
aF0.0
aF2.0
aF0.0
aF0.0
aF0.0
aF2.0
aF0.0
aF0.0
aF2.0
aF0.0
aF0.0
aF2.0
aF0.0
aF0.0
aF0.0
aF0.0
aF0.0
aF0.0
aF0.0
aF0.0
aF0.0
aF4.0
aF1.0
aF3.0
aF0.0
aF0.0
aF0.0
aF0.0
aF1.0
aF0.0
aF0.0
aF0.0
aF0.0
aF0.0
aF0.0
aF1.0
aF0.0
aF2.0
aF0.0
aF0.0
aF0.0
aF3.0
aF0.0
aF1.0
aF2.0
aF0.0
aF1.0
aF0.0
aF0.0
aF2.0
aF0.0
aF0.0
aF0.0
aF0.0
aF0.0
aF0.0
aF0.0
aF0.0
aF0.0
aF0.0
aF0.0
aF1.0
aF2.0
aF0.0
aF1.0
aF0.0
aF0.0
aF0.0
aF0.0
aF0.0
aF0.0
aF2.0
aF0.0
aF0.0
aF0.0
aF0.0
atp520
Rp521
(dp522
g6
F0.0
sg7
F47.855
sg8
I63
sg9
g10
(g11
g12
Ntp523
Rp524
(dp525
g16
g18
(g22
S'\xf4g\x9c\x07\x12\xb5\x9b?'
p526
tp527
Rp528
sg17
(F-37.64429000000003
g18
(g22
S'M\x7fD\x8b\xefS\xc8?'
p529
tp530
Rp531
tp532
sbsg29
F315.21414494514465
sg30
I207380960
sg31
F315.21414494514465
sbag1
((lp533
F0.0
aF0.0
aF0.0
aF0.0
aF0.0
aF0.0
aF1.0
aF0.0
aF0.0
aF0.0
aF0.0
aF2.0
aF0.0
aF0.0
aF0.0
aF0.0
aF0.0
aF0.0
aF0.0
aF0.0
aF0.0
aF0.0
aF0.0
aF2.0
aF0.0
aF3.0
aF0.0
aF2.0
aF2.0
aF0.0
aF2.0
aF0.0
aF0.0
aF0.0
aF2.0
aF0.0
aF0.0
aF2.0
aF0.0
aF0.0
aF2.0
aF0.0
aF0.0
aF0.0
aF0.0
aF0.0
aF2.0
aF0.0
aF2.0
aF2.0
aF0.0
aF1.0
aF3.0
aF0.0
aF0.0
aF0.0
aF0.0
aF1.0
aF0.0
aF0.0
aF0.0
aF0.0
aF0.0
aF0.0
aF1.0
aF0.0
aF2.0
aF0.0
aF0.0
aF2.0
aF2.0
aF0.0
aF1.0
aF2.0
aF0.0
aF1.0
aF0.0
aF0.0
aF2.0
aF0.0
aF0.0
aF0.0
aF0.0
aF0.0
aF0.0
aF0.0
aF0.0
aF0.0
aF0.0
aF0.0
aF1.0
aF2.0
aF0.0
aF1.0
aF0.0
aF0.0
aF0.0
aF0.0
aF0.0
aF0.0
aF2.0
aF0.0
aF0.0
aF0.0
aF0.0
atp534
Rp535
(dp536
g6
F0.0
sg7
F55.099
sg8
I62
sg9
g10
(g11
g12
Ntp537
Rp538
(dp539
g16
g18
(g22
S'\x96\xdbl\xc4\xb3\xca\x9a?'
p540
tp541
Rp542
sg17
(F-49.03702000000002
g18
(g22
S'\x98\t\x0e\xbf\x94\xda\xcd?'
p543
tp544
Rp545
tp546
sbsg29
F319.75130105018616
sg30
I423176239
sg31
F319.75130105018616
sbag1
((lp547
F0.0
aF0.0
aF0.0
aF0.0
aF0.0
aF0.0
aF1.0
aF0.0
aF0.0
aF0.0
aF0.0
aF2.0
aF0.0
aF0.0
aF0.0
aF0.0
aF0.0
aF0.0
aF0.0
aF0.0
aF0.0
aF0.0
aF0.0
aF2.0
aF0.0
aF3.0
aF0.0
aF0.0
aF3.0
aF0.0
aF0.0
aF0.0
aF0.0
aF0.0
aF1.0
aF0.0
aF0.0
aF2.0
aF0.0
aF1.0
aF3.0
aF0.0
aF0.0
aF0.0
aF0.0
aF0.0
aF0.0
aF0.0
aF2.0
aF2.0
aF0.0
aF0.0
aF1.0
aF0.0
aF0.0
aF0.0
aF0.0
aF1.0
aF0.0
aF0.0
aF0.0
aF0.0
aF0.0
aF0.0
aF1.0
aF0.0
aF2.0
aF0.0
aF0.0
aF0.0
aF3.0
aF0.0
aF1.0
aF2.0
aF0.0
aF1.0
aF0.0
aF0.0
aF2.0
aF0.0
aF0.0
aF0.0
aF0.0
aF0.0
aF0.0
aF0.0
aF0.0
aF0.0
aF0.0
aF0.0
aF1.0
aF2.0
aF0.0
aF1.0
aF0.0
aF0.0
aF0.0
aF0.0
aF0.0
aF0.0
aF2.0
aF0.0
aF0.0
aF0.0
aF0.0
atp548
Rp549
(dp550
g6
F0.0
sg29
F288.9527781009674
sg31
F288.9527781009674
sg7
F15.7
sg9
g10
(g11
g12
Ntp551
Rp552
(dp553
g16
g18
(g22
S'\x90<]\xd0\x98W\x9a?'
p554
tp555
Rp556
sg17
(F-31.693130000000025
g18
(g22
S'!\x80\xdc\x7fm\x80\xc4?'
p557
tp558
Rp559
tp560
sbsg8
I56
sg30
I219219616
sbag1
((lp561
F0.0
aF0.0
aF0.0
aF0.0
aF0.0
aF0.0
aF1.0
aF0.0
aF0.0
aF0.0
aF0.0
aF2.0
aF0.0
aF0.0
aF0.0
aF0.0
aF0.0
aF0.0
aF0.0
aF0.0
aF0.0
aF0.0
aF0.0
aF2.0
aF0.0
aF3.0
aF0.0
aF2.0
aF2.0
aF0.0
aF2.0
aF0.0
aF0.0
aF0.0
aF1.0
aF0.0
aF0.0
aF2.0
aF0.0
aF1.0
aF3.0
aF0.0
aF0.0
aF0.0
aF0.0
aF0.0
aF0.0
aF0.0
aF2.0
aF2.0
aF0.0
aF1.0
aF3.0
aF0.0
aF2.0
aF0.0
aF0.0
aF1.0
aF0.0
aF0.0
aF0.0
aF0.0
aF0.0
aF1.0
aF0.0
aF4.0
aF2.0
aF0.0
aF0.0
aF0.0
aF3.0
aF0.0
aF1.0
aF2.0
aF0.0
aF1.0
aF0.0
aF0.0
aF2.0
aF0.0
aF0.0
aF0.0
aF0.0
aF0.0
aF0.0
aF0.0
aF0.0
aF0.0
aF0.0
aF0.0
aF1.0
aF2.0
aF0.0
aF1.0
aF0.0
aF0.0
aF0.0
aF0.0
aF0.0
aF0.0
aF2.0
aF0.0
aF0.0
aF0.0
aF0.0
atp562
Rp563
(dp564
g6
F0.0
sg7
F45.696
sg8
I59
sg9
g10
(g11
g12
Ntp565
Rp566
(dp567
g16
g18
(g22
S'\xa8\x80\x83\x03\xa67\x99?'
p568
tp569
Rp570
sg17
(F-32.72327000000002
g18
(g22
S'\x1b\xed\x8d\xaa7E\xc5?'
p571
tp572
Rp573
tp574
sbsg29
F310.38640999794006
sg30
I138789389
sg31
F310.38640999794006
sbag1
((lp575
F0.0
aF0.0
aF0.0
aF0.0
aF0.0
aF0.0
aF1.0
aF0.0
aF0.0
aF0.0
aF1.0
aF0.0
aF0.0
aF0.0
aF0.0
aF0.0
aF0.0
aF0.0
aF0.0
aF0.0
aF0.0
aF0.0
aF0.0
aF2.0
aF0.0
aF3.0
aF0.0
aF2.0
aF2.0
aF0.0
aF2.0
aF0.0
aF0.0
aF2.0
aF2.0
aF0.0
aF0.0
aF2.0
aF0.0
aF0.0
aF2.0
aF0.0
aF0.0
aF0.0
aF0.0
aF0.0
aF2.0
aF0.0
aF2.0
aF2.0
aF0.0
aF1.0
aF3.0
aF0.0
aF2.0
aF0.0
aF0.0
aF1.0
aF0.0
aF0.0
aF0.0
aF0.0
aF0.0
aF1.0
aF0.0
aF4.0
aF0.0
aF3.0
aF0.0
aF0.0
aF2.0
aF0.0
aF1.0
aF2.0
aF0.0
aF1.0
aF0.0
aF0.0
aF2.0
aF0.0
aF0.0
aF0.0
aF0.0
aF0.0
aF0.0
aF0.0
aF0.0
aF0.0
aF0.0
aF0.0
aF1.0
aF2.0
aF0.0
aF1.0
aF0.0
aF0.0
aF0.0
aF0.0
aF0.0
aF0.0
aF2.0
aF0.0
aF0.0
aF0.0
aF0.0
atp576
Rp577
(dp578
g6
F0.0
sg7
F52.484
sg8
I50
sg9
g10
(g11
g12
Ntp579
Rp580
(dp581
g16
g18
(g22
S'\xba\xee\x04\xf7x0\x99?'
p582
tp583
Rp584
sg17
(F-50.73558000000003
g18
(g22
S'@ )\xa4\x88\x17\xce?'
p585
tp586
Rp587
tp588
sbsg29
F331.7297430038452
sg30
I332278158
sg31
F331.7297430038452
sbag1
((lp589
F0.0
aF0.0
aF0.0
aF0.0
aF0.0
aF0.0
aF1.0
aF0.0
aF0.0
aF0.0
aF0.0
aF2.0
aF0.0
aF0.0
aF0.0
aF0.0
aF0.0
aF0.0
aF0.0
aF0.0
aF0.0
aF0.0
aF0.0
aF2.0
aF0.0
aF3.0
aF0.0
aF2.0
aF2.0
aF0.0
aF2.0
aF0.0
aF0.0
aF2.0
aF2.0
aF0.0
aF0.0
aF2.0
aF0.0
aF0.0
aF2.0
aF0.0
aF0.0
aF0.0
aF0.0
aF0.0
aF0.0
aF0.0
aF2.0
aF2.0
aF0.0
aF1.0
aF3.0
aF0.0
aF0.0
aF0.0
aF0.0
aF1.0
aF0.0
aF0.0
aF0.0
aF0.0
aF0.0
aF1.0
aF0.0
aF4.0
aF0.0
aF3.0
aF0.0
aF0.0
aF2.0
aF0.0
aF1.0
aF2.0
aF0.0
aF1.0
aF0.0
aF0.0
aF2.0
aF0.0
aF0.0
aF0.0
aF0.0
aF0.0
aF0.0
aF0.0
aF0.0
aF0.0
aF0.0
aF0.0
aF1.0
aF2.0
aF0.0
aF1.0
aF0.0
aF0.0
aF0.0
aF0.0
aF0.0
aF0.0
aF2.0
aF0.0
aF0.0
aF0.0
aF0.0
atp590
Rp591
(dp592
g6
F0.0
sg7
F56.797
sg8
I62
sg9
g10
(g11
g12
Ntp593
Rp594
(dp595
g16
g18
(g22
S'\xbc\xe0&\x07?\xe4\x97?'
p596
tp597
Rp598
sg17
(F-44.934650000000026
g18
(g22
S'\x10r\xed\xbffM\xcc?'
p599
tp600
Rp601
tp602
sbsg29
F288.60802578926086
sg30
I233846046
sg31
F288.60802578926086
sbag1
((lp603
F0.0
aF0.0
aF0.0
aF0.0
aF0.0
aF0.0
aF1.0
aF0.0
aF0.0
aF0.0
aF0.0
aF2.0
aF0.0
aF0.0
aF0.0
aF0.0
aF0.0
aF0.0
aF0.0
aF0.0
aF0.0
aF0.0
aF0.0
aF2.0
aF0.0
aF3.0
aF0.0
aF0.0
aF3.0
aF0.0
aF0.0
aF0.0
aF0.0
aF0.0
aF1.0
aF0.0
aF0.0
aF2.0
aF0.0
aF1.0
aF3.0
aF0.0
aF0.0
aF0.0
aF0.0
aF0.0
aF0.0
aF0.0
aF2.0
aF2.0
aF0.0
aF1.0
aF3.0
aF0.0
aF2.0
aF0.0
aF0.0
aF1.0
aF0.0
aF0.0
aF0.0
aF0.0
aF0.0
aF1.0
aF0.0
aF4.0
aF2.0
aF0.0
aF0.0
aF0.0
aF3.0
aF0.0
aF1.0
aF2.0
aF0.0
aF1.0
aF0.0
aF0.0
aF2.0
aF0.0
aF0.0
aF0.0
aF0.0
aF0.0
aF0.0
aF0.0
aF0.0
aF0.0
aF0.0
aF0.0
aF1.0
aF2.0
aF0.0
aF1.0
aF0.0
aF0.0
aF0.0
aF0.0
aF0.0
aF0.0
aF2.0
aF0.0
aF0.0
aF0.0
aF0.0
atp604
Rp605
(dp606
g6
F0.0
sg7
F59.84
sg8
I57
sg9
g10
(g11
g12
Ntp607
Rp608
(dp609
g16
g18
(g22
S'\x9e\xacz\xa4\x8b\xc4\x97?'
p610
tp611
Rp612
sg17
(F-32.479320000000016
g18
(g22
S'$\xcd\xa65\xb1\xce\xc4?'
p613
tp614
Rp615
tp616
sbsg29
F305.9980149269104
sg30
I148243388
sg31
F305.9980149269104
sbag1
((lp617
F0.0
aF2.0
aF0.0
aF0.0
aF0.0
aF0.0
aF2.0
aF0.0
aF0.0
aF0.0
aF0.0
aF2.0
aF0.0
aF0.0
aF0.0
aF0.0
aF0.0
aF0.0
aF0.0
aF0.0
aF0.0
aF0.0
aF0.0
aF2.0
aF0.0
aF2.0
aF0.0
aF2.0
aF2.0
aF0.0
aF2.0
aF0.0
aF0.0
aF2.0
aF2.0
aF0.0
aF0.0
aF2.0
aF0.0
aF0.0
aF2.0
aF0.0
aF0.0
aF0.0
aF0.0
aF0.0
aF0.0
aF0.0
aF2.0
aF2.0
aF0.0
aF1.0
aF3.0
aF0.0
aF0.0
aF0.0
aF0.0
aF1.0
aF0.0
aF0.0
aF0.0
aF0.0
aF0.0
aF1.0
aF0.0
aF4.0
aF0.0
aF3.0
aF0.0
aF0.0
aF2.0
aF0.0
aF1.0
aF2.0
aF0.0
aF1.0
aF0.0
aF0.0
aF2.0
aF0.0
aF0.0
aF0.0
aF0.0
aF0.0
aF0.0
aF0.0
aF0.0
aF0.0
aF0.0
aF0.0
aF1.0
aF2.0
aF0.0
aF1.0
aF0.0
aF0.0
aF0.0
aF0.0
aF0.0
aF0.0
aF2.0
aF0.0
aF0.0
aF0.0
aF0.0
atp618
Rp619
(dp620
g6
F0.0
sg7
F60.901
sg8
I63
sg9
g10
(g11
g12
Ntp621
Rp622
(dp623
g16
g18
(g22
S'\xc6q\x98\x0e\xfb(\x97?'
p624
tp625
Rp626
sg17
(F-56.47065999999998
g18
(g22
S'\x0eAUt\xb3W\xd0?'
p627
tp628
Rp629
tp630
sbsg29
F330.53162908554077
sg30
I668671546
sg31
F330.53162908554077
sbag1
((lp631
F0.0
aF0.0
aF0.0
aF0.0
aF0.0
aF0.0
aF1.0
aF0.0
aF0.0
aF0.0
aF1.0
aF0.0
aF0.0
aF0.0
aF0.0
aF0.0
aF0.0
aF0.0
aF0.0
aF0.0
aF0.0
aF0.0
aF0.0
aF2.0
aF0.0
aF2.0
aF0.0
aF2.0
aF2.0
aF0.0
aF2.0
aF0.0
aF0.0
aF0.0
aF2.0
aF0.0
aF0.0
aF2.0
aF0.0
aF0.0
aF2.0
aF0.0
aF0.0
aF0.0
aF0.0
aF0.0
aF0.0
aF0.0
aF2.0
aF2.0
aF0.0
aF0.0
aF1.0
aF0.0
aF0.0
aF0.0
aF0.0
aF1.0
aF0.0
aF0.0
aF0.0
aF0.0
aF0.0
aF0.0
aF1.0
aF0.0
aF2.0
aF0.0
aF0.0
aF2.0
aF2.0
aF0.0
aF1.0
aF2.0
aF0.0
aF1.0
aF0.0
aF0.0
aF2.0
aF0.0
aF0.0
aF0.0
aF0.0
aF0.0
aF0.0
aF0.0
aF0.0
aF0.0
aF0.0
aF0.0
aF1.0
aF2.0
aF0.0
aF1.0
aF0.0
aF0.0
aF0.0
aF0.0
aF0.0
aF0.0
aF2.0
aF0.0
aF0.0
aF0.0
aF0.0
atp632
Rp633
(dp634
g6
F0.0
sg7
F54.919
sg8
I58
sg9
g10
(g11
g12
Ntp635
Rp636
(dp637
g16
g18
(g22
S'\x90f|\xe7r\xb2\x96?'
p638
tp639
Rp640
sg17
(F-46.86109
g18
(g22
S'^\n\xa8\xeb\xf7\r\xcd?'
p641
tp642
Rp643
tp644
sbsg29
F239.40852403640747
sg30
I160758835
sg31
F239.40852403640747
sbag1
((lp645
F0.0
aF0.0
aF0.0
aF0.0
aF0.0
aF0.0
aF2.0
aF0.0
aF0.0
aF0.0
aF0.0
aF2.0
aF0.0
aF0.0
aF0.0
aF0.0
aF0.0
aF0.0
aF0.0
aF0.0
aF0.0
aF0.0
aF0.0
aF2.0
aF0.0
aF2.0
aF0.0
aF2.0
aF2.0
aF0.0
aF2.0
aF0.0
aF0.0
aF2.0
aF2.0
aF0.0
aF0.0
aF2.0
aF0.0
aF0.0
aF2.0
aF0.0
aF0.0
aF0.0
aF0.0
aF0.0
aF0.0
aF0.0
aF2.0
aF2.0
aF0.0
aF1.0
aF3.0
aF0.0
aF2.0
aF0.0
aF0.0
aF1.0
aF0.0
aF0.0
aF0.0
aF0.0
aF0.0
aF1.0
aF0.0
aF4.0
aF0.0
aF3.0
aF0.0
aF0.0
aF2.0
aF0.0
aF1.0
aF2.0
aF0.0
aF1.0
aF0.0
aF0.0
aF2.0
aF0.0
aF0.0
aF0.0
aF0.0
aF0.0
aF0.0
aF0.0
aF0.0
aF0.0
aF0.0
aF0.0
aF1.0
aF2.0
aF0.0
aF1.0
aF0.0
aF0.0
aF0.0
aF0.0
aF0.0
aF0.0
aF2.0
aF0.0
aF0.0
aF0.0
aF0.0
atp646
Rp647
(dp648
g6
F0.0
sg7
F47.055
sg8
I62
sg9
g10
(g11
g12
Ntp649
Rp650
(dp651
g16
g18
(g22
S't\xe1d\x8b\x08\x90\x96?'
p652
tp653
Rp654
sg17
(F-47.584080000000036
g18
(g22
S'\xf3\x14\xf3\xad\xf3v\xcd?'
p655
tp656
Rp657
tp658
sbsg29
F339.40745306015015
sg30
I830319759
sg31
F339.40745306015015
sbag1
((lp659
F0.0
aF2.0
aF0.0
aF0.0
aF0.0
aF0.0
aF2.0
aF0.0
aF0.0
aF0.0
aF0.0
aF2.0
aF0.0
aF0.0
aF0.0
aF0.0
aF0.0
aF0.0
aF0.0
aF0.0
aF2.0
aF1.0
aF0.0
aF0.0
aF0.0
aF2.0
aF0.0
aF2.0
aF2.0
aF0.0
aF2.0
aF0.0
aF0.0
aF2.0
aF2.0
aF0.0
aF0.0
aF2.0
aF0.0
aF0.0
aF2.0
aF0.0
aF0.0
aF0.0
aF0.0
aF0.0
aF2.0
aF0.0
aF2.0
aF2.0
aF0.0
aF1.0
aF3.0
aF0.0
aF2.0
aF0.0
aF0.0
aF1.0
aF0.0
aF0.0
aF0.0
aF0.0
aF0.0
aF0.0
aF1.0
aF0.0
aF2.0
aF0.0
aF0.0
aF2.0
aF2.0
aF0.0
aF1.0
aF2.0
aF0.0
aF1.0
aF0.0
aF0.0
aF2.0
aF0.0
aF0.0
aF0.0
aF0.0
aF0.0
aF0.0
aF0.0
aF0.0
aF0.0
aF0.0
aF0.0
aF1.0
aF2.0
aF0.0
aF1.0
aF0.0
aF0.0
aF0.0
aF0.0
aF0.0
aF0.0
aF2.0
aF0.0
aF0.0
aF0.0
aF0.0
atp660
Rp661
(dp662
g6
F0.0
sg7
F30.499
sg8
I59
sg9
g10
(g11
g12
Ntp663
Rp664
(dp665
g16
g18
(g22
S'\x88\xe8\x0bO\x97\xb1\x95?'
p666
tp667
Rp668
sg17
(F-61.72124999999997
g18
(g22
S'\xc7j@\xeb\xcc:\xd1?'
p669
tp670
Rp671
tp672
sbsg29
F259.2099859714508
sg30
I125606498
sg31
F259.2099859714508
sbag1
((lp673
F0.0
aF0.0
aF0.0
aF0.0
aF0.0
aF0.0
aF1.0
aF0.0
aF0.0
aF0.0
aF1.0
aF0.0
aF0.0
aF0.0
aF0.0
aF0.0
aF0.0
aF0.0
aF0.0
aF0.0
aF0.0
aF0.0
aF0.0
aF2.0
aF0.0
aF3.0
aF0.0
aF2.0
aF2.0
aF0.0
aF2.0
aF0.0
aF0.0
aF0.0
aF1.0
aF0.0
aF0.0
aF1.0
aF0.0
aF0.0
aF1.0
aF0.0
aF0.0
aF0.0
aF0.0
aF0.0
aF0.0
aF0.0
aF0.0
aF0.0
aF4.0
aF1.0
aF3.0
aF0.0
aF2.0
aF0.0
aF0.0
aF1.0
aF0.0
aF0.0
aF0.0
aF0.0
aF0.0
aF1.0
aF0.0
aF4.0
aF2.0
aF0.0
aF0.0
aF0.0
aF3.0
aF0.0
aF1.0
aF2.0
aF0.0
aF1.0
aF0.0
aF0.0
aF2.0
aF0.0
aF0.0
aF0.0
aF0.0
aF0.0
aF0.0
aF0.0
aF0.0
aF0.0
aF0.0
aF0.0
aF1.0
aF2.0
aF0.0
aF1.0
aF0.0
aF0.0
aF0.0
aF0.0
aF0.0
aF0.0
aF2.0
aF0.0
aF0.0
aF0.0
aF0.0
atp674
Rp675
(dp676
g6
F0.0
sg29
F295.7753338813782
sg31
F295.7753338813782
sg7
F12.643
sg9
g10
(g11
g12
Ntp677
Rp678
(dp679
g16
g18
(g22
S'\xc5\xf7\xf41\x11)\x94?'
p680
tp681
Rp682
sg17
(F-27.068879999999993
g18
(g22
S"\x11'\xb6v\xd3\x07\xc0?"
p683
tp684
Rp685
tp686
sbsg8
I61
sg30
I342784283
sbag1
((lp687
F0.0
aF0.0
aF0.0
aF0.0
aF0.0
aF0.0
aF2.0
aF0.0
aF0.0
aF0.0
aF0.0
aF2.0
aF0.0
aF0.0
aF0.0
aF0.0
aF0.0
aF0.0
aF0.0
aF0.0
aF0.0
aF0.0
aF0.0
aF2.0
aF0.0
aF2.0
aF0.0
aF2.0
aF2.0
aF0.0
aF2.0
aF0.0
aF0.0
aF2.0
aF2.0
aF0.0
aF0.0
aF2.0
aF0.0
aF0.0
aF2.0
aF0.0
aF0.0
aF0.0
aF0.0
aF0.0
aF0.0
aF0.0
aF2.0
aF2.0
aF0.0
aF1.0
aF3.0
aF0.0
aF0.0
aF0.0
aF0.0
aF1.0
aF0.0
aF0.0
aF0.0
aF0.0
aF0.0
aF1.0
aF0.0
aF4.0
aF0.0
aF3.0
aF0.0
aF0.0
aF3.0
aF0.0
aF1.0
aF2.0
aF0.0
aF1.0
aF0.0
aF0.0
aF2.0
aF0.0
aF0.0
aF0.0
aF0.0
aF0.0
aF0.0
aF0.0
aF0.0
aF0.0
aF0.0
aF0.0
aF1.0
aF2.0
aF0.0
aF1.0
aF0.0
aF0.0
aF0.0
aF0.0
aF0.0
aF0.0
aF2.0
aF0.0
aF0.0
aF0.0
aF0.0
atp688
Rp689
(dp690
g6
F0.0
sg7
F74.283
sg8
I59
sg9
g10
(g11
g12
Ntp691
Rp692
(dp693
g16
g18
(g22
S'\xc9\xb0\xeaj\x12 \x94?'
p694
tp695
Rp696
sg17
(F-44.166850000000025
g18
(g22
S'9X\xb9p\x99\xbc\xcb?'
p697
tp698
Rp699
tp700
sbsg29
F302.65403294563293
sg30
I258590161
sg31
F302.65403294563293
sbag1
((lp701
F0.0
aF2.0
aF0.0
aF0.0
aF0.0
aF0.0
aF2.0
aF0.0
aF0.0
aF0.0
aF0.0
aF2.0
aF0.0
aF0.0
aF0.0
aF0.0
aF0.0
aF0.0
aF0.0
aF0.0
aF0.0
aF0.0
aF0.0
aF2.0
aF0.0
aF3.0
aF0.0
aF2.0
aF2.0
aF0.0
aF2.0
aF0.0
aF0.0
aF0.0
aF2.0
aF0.0
aF0.0
aF2.0
aF0.0
aF0.0
aF2.0
aF0.0
aF0.0
aF0.0
aF0.0
aF0.0
aF0.0
aF0.0
aF2.0
aF2.0
aF0.0
aF1.0
aF3.0
aF0.0
aF0.0
aF0.0
aF0.0
aF1.0
aF0.0
aF0.0
aF0.0
aF0.0
aF0.0
aF1.0
aF0.0
aF4.0
aF0.0
aF3.0
aF0.0
aF0.0
aF2.0
aF0.0
aF1.0
aF2.0
aF0.0
aF1.0
aF0.0
aF0.0
aF2.0
aF0.0
aF0.0
aF0.0
aF0.0
aF0.0
aF0.0
aF0.0
aF0.0
aF0.0
aF0.0
aF0.0
aF1.0
aF2.0
aF0.0
aF1.0
aF0.0
aF0.0
aF0.0
aF0.0
aF0.0
aF0.0
aF2.0
aF0.0
aF0.0
aF0.0
aF0.0
atp702
Rp703
(dp704
g6
F0.0
sg7
F46.971
sg8
I58
sg9
g10
(g11
g12
Ntp705
Rp706
(dp707
g16
g18
(g22
S'\xa8\xb0\xeaj\x12 \x94?'
p708
tp709
Rp710
sg17
(F-53.741850000000014
g18
(g22
S'&IQ\xca\xa6]\xcf?'
p711
tp712
Rp713
tp714
sbsg29
F324.4133880138397
sg30
I318595344
sg31
F324.4133880138397
sbag1
((lp715
F0.0
aF2.0
aF0.0
aF0.0
aF0.0
aF0.0
aF2.0
aF0.0
aF0.0
aF0.0
aF0.0
aF2.0
aF0.0
aF0.0
aF0.0
aF0.0
aF0.0
aF0.0
aF0.0
aF0.0
aF2.0
aF0.0
aF0.0
aF2.0
aF0.0
aF2.0
aF0.0
aF2.0
aF2.0
aF0.0
aF2.0
aF0.0
aF0.0
aF2.0
aF2.0
aF0.0
aF0.0
aF2.0
aF0.0
aF0.0
aF2.0
aF0.0
aF0.0
aF0.0
aF0.0
aF0.0
aF0.0
aF0.0
aF2.0
aF2.0
aF0.0
aF1.0
aF3.0
aF0.0
aF0.0
aF0.0
aF0.0
aF1.0
aF0.0
aF0.0
aF0.0
aF0.0
aF0.0
aF1.0
aF0.0
aF4.0
aF0.0
aF3.0
aF0.0
aF0.0
aF2.0
aF0.0
aF1.0
aF2.0
aF0.0
aF1.0
aF0.0
aF0.0
aF2.0
aF0.0
aF0.0
aF0.0
aF0.0
aF0.0
aF0.0
aF0.0
aF0.0
aF0.0
aF0.0
aF0.0
aF1.0
aF2.0
aF0.0
aF1.0
aF0.0
aF0.0
aF0.0
aF0.0
aF0.0
aF0.0
aF2.0
aF0.0
aF0.0
aF0.0
aF0.0
atp716
Rp717
(dp718
g6
F0.0
sg7
F36.672
sg8
I61
sg9
g10
(g11
g12
Ntp719
Rp720
(dp721
g16
g18
(g22
S'\xdcM\x92}y\x14\x94?'
p722
tp723
Rp724
sg17
(F-56.944669999999974
g18
(g22
S'\t\x0cq\x95\xf1X\xd0?'
p725
tp726
Rp727
tp728
sbsg29
F251.1385998725891
sg30
I222213759
sg31
F251.1385998725891
sbag1
((lp729
F0.0
aF0.0
aF0.0
aF0.0
aF0.0
aF0.0
aF2.0
aF0.0
aF0.0
aF0.0
aF0.0
aF2.0
aF0.0
aF0.0
aF0.0
aF0.0
aF0.0
aF0.0
aF0.0
aF0.0
aF0.0
aF0.0
aF0.0
aF2.0
aF0.0
aF3.0
aF0.0
aF2.0
aF2.0
aF0.0
aF2.0
aF0.0
aF0.0
aF0.0
aF2.0
aF0.0
aF0.0
aF2.0
aF0.0
aF0.0
aF2.0
aF0.0
aF0.0
aF0.0
aF0.0
aF0.0
aF2.0
aF0.0
aF2.0
aF2.0
aF0.0
aF1.0
aF3.0
aF0.0
aF0.0
aF0.0
aF0.0
aF1.0
aF0.0
aF0.0
aF0.0
aF0.0
aF0.0
aF0.0
aF1.0
aF0.0
aF2.0
aF0.0
aF0.0
aF2.0
aF2.0
aF0.0
aF1.0
aF2.0
aF0.0
aF1.0
aF0.0
aF0.0
aF2.0
aF0.0
aF0.0
aF0.0
aF0.0
aF0.0
aF0.0
aF0.0
aF0.0
aF0.0
aF0.0
aF0.0
aF1.0
aF2.0
aF0.0
aF1.0
aF0.0
aF0.0
aF0.0
aF0.0
aF0.0
aF0.0
aF2.0
aF0.0
aF0.0
aF0.0
aF0.0
atp730
Rp731
(dp732
g6
F0.0
sg7
F44.328
sg8
I63
sg9
g10
(g11
g12
Ntp733
Rp734
(dp735
g16
g18
(g22
S'\xc0 \x862:<\x93?'
p736
tp737
Rp738
sg17
(F-49.69302000000002
g18
(g22
S"\x9d\xc9'\x1a\r\xe9\xcd?"
p739
tp740
Rp741
tp742
sbsg29
F292.95722818374634
sg30
I415314232
sg31
F292.95722818374634
sbag1
((lp743
F0.0
aF0.0
aF0.0
aF0.0
aF0.0
aF0.0
aF1.0
aF0.0
aF0.0
aF0.0
aF1.0
aF0.0
aF0.0
aF0.0
aF0.0
aF0.0
aF0.0
aF0.0
aF0.0
aF0.0
aF0.0
aF0.0
aF0.0
aF2.0
aF0.0
aF2.0
aF0.0
aF2.0
aF2.0
aF0.0
aF2.0
aF0.0
aF0.0
aF0.0
aF2.0
aF0.0
aF0.0
aF2.0
aF0.0
aF0.0
aF2.0
aF0.0
aF0.0
aF0.0
aF0.0
aF0.0
aF2.0
aF0.0
aF2.0
aF2.0
aF0.0
aF1.0
aF3.0
aF0.0
aF0.0
aF0.0
aF0.0
aF1.0
aF0.0
aF0.0
aF0.0
aF0.0
aF0.0
aF0.0
aF1.0
aF0.0
aF2.0
aF0.0
aF0.0
aF2.0
aF2.0
aF0.0
aF1.0
aF2.0
aF0.0
aF1.0
aF0.0
aF0.0
aF2.0
aF0.0
aF0.0
aF0.0
aF0.0
aF0.0
aF0.0
aF0.0
aF0.0
aF0.0
aF0.0
aF0.0
aF1.0
aF2.0
aF0.0
aF1.0
aF0.0
aF0.0
aF0.0
aF0.0
aF0.0
aF0.0
aF2.0
aF0.0
aF0.0
aF0.0
aF0.0
atp744
Rp745
(dp746
g6
F0.0
sg7
F53.985
sg8
I62
sg9
g10
(g11
g12
Ntp747
Rp748
(dp749
g16
g18
(g22
S'4\xea.:\xa3\x1f\x92?'
p750
tp751
Rp752
sg17
(F-52.14887000000002
g18
(g22
S'\xb1=F\xb8\xe6\r\xcf?'
p753
tp754
Rp755
tp756
sbsg29
F335.04128098487854
sg30
I127745638
sg31
F335.04128098487854
sbag1
((lp757
F0.0
aF2.0
aF0.0
aF0.0
aF0.0
aF0.0
aF1.0
aF0.0
aF0.0
aF0.0
aF1.0
aF0.0
aF0.0
aF0.0
aF0.0
aF0.0
aF0.0
aF0.0
aF0.0
aF0.0
aF2.0
aF0.0
aF0.0
aF2.0
aF0.0
aF2.0
aF0.0
aF2.0
aF2.0
aF0.0
aF2.0
aF0.0
aF0.0
aF0.0
aF2.0
aF0.0
aF0.0
aF2.0
aF0.0
aF0.0
aF2.0
aF0.0
aF0.0
aF0.0
aF0.0
aF0.0
aF2.0
aF0.0
aF2.0
aF2.0
aF0.0
aF1.0
aF3.0
aF0.0
aF0.0
aF0.0
aF0.0
aF1.0
aF0.0
aF0.0
aF0.0
aF0.0
aF0.0
aF0.0
aF1.0
aF0.0
aF2.0
aF0.0
aF0.0
aF2.0
aF2.0
aF0.0
aF1.0
aF2.0
aF0.0
aF1.0
aF0.0
aF0.0
aF2.0
aF0.0
aF0.0
aF0.0
aF0.0
aF0.0
aF0.0
aF0.0
aF0.0
aF0.0
aF0.0
aF0.0
aF1.0
aF2.0
aF0.0
aF1.0
aF0.0
aF0.0
aF0.0
aF0.0
aF0.0
aF2.0
aF2.0
aF0.0
aF0.0
aF0.0
aF0.0
atp758
Rp759
(dp760
g6
F0.0
sg7
F46.892
sg8
I61
sg9
g10
(g11
g12
Ntp761
Rp762
(dp763
g16
g18
(g22
S'[\xe1\xa8\x08.p\x90?'
p764
tp765
Rp766
sg17
(F-63.10868999999998
g18
(g22
S'\xe5\xbb\xd8z\x9cN\xd1?'
p767
tp768
Rp769
tp770
sbsg29
F287.7796161174774
sg30
I146993814
sg31
F287.7796161174774
sbag1
((lp771
F0.0
aF0.0
aF0.0
aF0.0
aF0.0
aF0.0
aF1.0
aF0.0
aF0.0
aF0.0
aF1.0
aF0.0
aF0.0
aF0.0
aF0.0
aF0.0
aF0.0
aF0.0
aF0.0
aF0.0
aF0.0
aF0.0
aF0.0
aF2.0
aF0.0
aF2.0
aF0.0
aF2.0
aF2.0
aF0.0
aF2.0
aF0.0
aF0.0
aF0.0
aF2.0
aF0.0
aF0.0
aF2.0
aF0.0
aF0.0
aF2.0
aF0.0
aF0.0
aF0.0
aF0.0
aF0.0
aF0.0
aF0.0
aF0.0
aF0.0
aF4.0
aF1.0
aF3.0
aF0.0
aF0.0
aF0.0
aF0.0
aF1.0
aF0.0
aF0.0
aF0.0
aF0.0
aF0.0
aF0.0
aF1.0
aF0.0
aF2.0
aF0.0
aF0.0
aF0.0
aF3.0
aF0.0
aF1.0
aF2.0
aF0.0
aF1.0
aF0.0
aF0.0
aF2.0
aF0.0
aF0.0
aF0.0
aF0.0
aF0.0
aF0.0
aF0.0
aF0.0
aF0.0
aF0.0
aF0.0
aF1.0
aF2.0
aF0.0
aF1.0
aF0.0
aF0.0
aF0.0
aF0.0
aF0.0
aF0.0
aF2.0
aF0.0
aF0.0
aF0.0
aF0.0
atp772
Rp773
(dp774
g6
F0.0
sg29
F285.7824869155884
sg31
F285.7824869155884
sg7
F12.656
sg9
g10
(g11
g12
Ntp775
Rp776
(dp777
g16
g18
(g22
S'>D\xbd\x8e\xde\xba\x8e?'
p778
tp779
Rp780
sg17
(F-40.10014000000002
g18
(g22
S'c\xe3\x12\xd8\xcbx\xc9?'
p781
tp782
Rp783
tp784
sbsg8
I58
sg30
I267517498
sbag1
((lp785
F0.0
aF0.0
aF0.0
aF0.0
aF0.0
aF0.0
aF1.0
aF0.0
aF0.0
aF0.0
aF1.0
aF0.0
aF0.0
aF0.0
aF0.0
aF0.0
aF0.0
aF0.0
aF0.0
aF0.0
aF0.0
aF0.0
aF0.0
aF2.0
aF0.0
aF2.0
aF0.0
aF2.0
aF2.0
aF0.0
aF2.0
aF0.0
aF0.0
aF0.0
aF2.0
aF0.0
aF0.0
aF2.0
aF0.0
aF0.0
aF2.0
aF0.0
aF0.0
aF0.0
aF0.0
aF0.0
aF0.0
aF0.0
aF0.0
aF0.0
aF4.0
aF1.0
aF3.0
aF0.0
aF2.0
aF0.0
aF0.0
aF1.0
aF0.0
aF0.0
aF0.0
aF0.0
aF0.0
aF1.0
aF0.0
aF4.0
aF2.0
aF0.0
aF0.0
aF0.0
aF3.0
aF0.0
aF1.0
aF2.0
aF0.0
aF1.0
aF0.0
aF0.0
aF2.0
aF0.0
aF0.0
aF0.0
aF0.0
aF0.0
aF0.0
aF0.0
aF0.0
aF0.0
aF0.0
aF0.0
aF1.0
aF2.0
aF0.0
aF1.0
aF0.0
aF0.0
aF0.0
aF0.0
aF0.0
aF0.0
aF2.0
aF0.0
aF0.0
aF0.0
aF0.0
atp786
Rp787
(dp788
g6
F0.0
sg29
F276.7893958091736
sg31
F276.7893958091736
sg7
F12.559
sg9
g10
(g11
g12
Ntp789
Rp790
(dp791
g16
g18
(g22
S'\x18{\x85\x95\xf6\xa7\x8d?'
p792
tp793
Rp794
sg17
(F-40.272200000000026
g18
(g22
S'5\xdd$k\x00y\xc9?'
p795
tp796
Rp797
tp798
sbsg30
I981793439
sg8
I63
sbag1
((lp799
F0.0
aF2.0
aF0.0
aF0.0
aF0.0
aF0.0
aF1.0
aF0.0
aF0.0
aF0.0
aF0.0
aF2.0
aF0.0
aF0.0
aF0.0
aF0.0
aF0.0
aF0.0
aF0.0
aF0.0
aF0.0
aF0.0
aF0.0
aF2.0
aF0.0
aF2.0
aF0.0
aF2.0
aF2.0
aF0.0
aF2.0
aF0.0
aF0.0
aF2.0
aF2.0
aF0.0
aF0.0
aF2.0
aF0.0
aF0.0
aF2.0
aF0.0
aF0.0
aF0.0
aF0.0
aF0.0
aF2.0
aF0.0
aF2.0
aF2.0
aF0.0
aF1.0
aF3.0
aF0.0
aF0.0
aF0.0
aF0.0
aF1.0
aF0.0
aF0.0
aF0.0
aF0.0
aF0.0
aF0.0
aF1.0
aF0.0
aF2.0
aF0.0
aF0.0
aF2.0
aF2.0
aF0.0
aF1.0
aF2.0
aF0.0
aF1.0
aF0.0
aF0.0
aF2.0
aF0.0
aF0.0
aF0.0
aF0.0
aF0.0
aF0.0
aF0.0
aF0.0
aF0.0
aF0.0
aF0.0
aF1.0
aF2.0
aF0.0
aF1.0
aF0.0
aF0.0
aF0.0
aF0.0
aF0.0
aF0.0
aF2.0
aF0.0
aF0.0
aF0.0
aF0.0
atp800
Rp801
(dp802
g6
F0.0
sg7
F54.962
sg8
I63
sg9
g10
(g11
g12
Ntp803
Rp804
(dp805
g16
g18
(g22
S'B\x80\xb8[Xf\x8c?'
p806
tp807
Rp808
sg17
(F-60.65683999999996
g18
(g22
S'5v\xf4]V2\xd1?'
p809
tp810
Rp811
tp812
sbsg29
F332.70116686820984
sg30
I136995753
sg31
F332.70116686820984
sba.