(lp0
cdeap.creator
Individual
p1
((lp2
F1.0
aF3.0
aF4.0
aF0.0
aF3.0
aF4.0
aF2.0
aF0.0
aF0.0
aF0.0
aF0.0
aF2.0
aF0.0
aF0.0
aF0.0
aF0.0
aF0.0
aF0.0
aF0.0
aF0.0
aF0.0
aF0.0
aF0.0
aF2.0
aF0.0
aF0.0
aF0.0
aF0.0
aF0.0
aF0.0
aF2.0
aF0.0
aF0.0
aF0.0
aF0.0
aF0.0
aF0.0
aF3.0
aF0.0
aF1.0
aF3.0
aF0.0
aF0.0
aF0.0
aF0.0
aF1.0
aF0.0
aF0.0
aF0.0
aF0.0
aF0.0
aF2.0
aF0.0
aF0.0
aF0.0
aF3.0
aF0.0
aF0.0
aF0.0
aF0.0
aF1.0
aF0.0
aF0.0
aF0.0
aF0.0
aF0.0
aF0.0
aF0.0
aF4.0
aF0.0
aF1.0
aF4.0
aF1.0
aF0.0
aF0.0
aF2.0
aF0.0
aF0.0
aF0.0
aF2.0
aF0.0
aF0.0
aF1.0
aF0.0
aF1.0
aF1.0
aF2.0
aF2.0
aF2.0
aF0.0
aF2.0
aF0.0
aF0.0
aF0.0
aF3.0
aF0.0
aF1.0
aF0.0
aF0.0
aF0.0
aF2.0
aF0.0
aF0.0
aF0.0
aF0.0
atp3
Rp4
(dp5
S'comp_time'
p6
F0.0
sS'io_time'
p7
F1575.765
sS'gen'
p8
I0
sS'fitness'
p9
ccopy_reg
_reconstructor
p10
(cdeap.creator
FitnessMulti
p11
c__builtin__
object
p12
Ntp13
Rp14
(dp15
S'crowding_dist'
p16
Finf
sS'wvalues'
p17
(F-42.93246999999998
cnumpy.core.multiarray
scalar
p18
(cnumpy
dtype
p19
(S'f8'
p20
I0
I1
tp21
Rp22
(I3
S'<'
p23
NNNI-1
I-1
I0
tp24
bS'\xbd\x8b\x8f9d2\xa8>'
p25
tp26
Rp27
tp28
sbsS'runtime'
p29
F1723.5052418708801
sS'id'
p30
I211339964
sS'simu_time'
p31
F1723.5052418708801
sbag1
((lp32
F0.0
aF1.0
aF0.0
aF1.0
aF3.0
aF0.0
aF0.0
aF0.0
aF4.0
aF1.0
aF2.0
aF0.0
aF0.0
aF0.0
aF4.0
aF0.0
aF2.0
aF0.0
aF1.0
aF1.0
aF0.0
aF1.0
aF3.0
aF0.0
aF0.0
aF1.0
aF4.0
aF1.0
aF3.0
aF4.0
aF0.0
aF3.0
aF0.0
aF0.0
aF3.0
aF2.0
aF2.0
aF0.0
aF0.0
aF0.0
aF0.0
aF0.0
aF2.0
aF0.0
aF0.0
aF0.0
aF0.0
aF0.0
aF0.0
aF0.0
aF0.0
aF2.0
aF0.0
aF0.0
aF0.0
aF3.0
aF0.0
aF0.0
aF0.0
aF0.0
aF1.0
aF0.0
aF0.0
aF0.0
aF0.0
aF0.0
aF0.0
aF0.0
aF4.0
aF0.0
aF1.0
aF4.0
aF1.0
aF0.0
aF0.0
aF2.0
aF0.0
aF0.0
aF0.0
aF2.0
aF0.0
aF0.0
aF1.0
aF0.0
aF1.0
aF1.0
aF2.0
aF2.0
aF2.0
aF0.0
aF2.0
aF0.0
aF0.0
aF0.0
aF3.0
aF0.0
aF1.0
aF0.0
aF0.0
aF0.0
aF2.0
aF0.0
aF0.0
aF0.0
aF0.0
atp33
Rp34
(dp35
g6
F0.0
sg29
F491.5620610713959
sg31
F491.5620610713959
sg7
F238.687
sg9
g10
(g11
g12
Ntp36
Rp37
(dp38
g16
Finf
sg17
(F-54.823359999999994
g18
(g22
S'r\x8a_>\x976\xba>'
p39
tp40
Rp41
tp42
sbsg8
I1
sg30
I971239266
sbag1
((lp43
F0.0
aF1.0
aF0.0
aF1.0
aF3.0
aF0.0
aF0.0
aF0.0
aF4.0
aF1.0
aF2.0
aF0.0
aF0.0
aF0.0
aF4.0
aF0.0
aF2.0
aF0.0
aF1.0
aF1.0
aF0.0
aF1.0
aF3.0
aF0.0
aF0.0
aF1.0
aF4.0
aF1.0
aF3.0
aF4.0
aF0.0
aF3.0
aF0.0
aF0.0
aF3.0
aF2.0
aF2.0
aF0.0
aF0.0
aF0.0
aF0.0
aF0.0
aF2.0
aF0.0
aF0.0
aF0.0
aF0.0
aF0.0
aF0.0
aF2.0
aF0.0
aF0.0
aF0.0
aF0.0
aF0.0
aF0.0
aF0.0
aF0.0
aF2.0
aF0.0
aF2.0
aF0.0
aF4.0
aF0.0
aF0.0
aF2.0
aF0.0
aF2.0
aF0.0
aF0.0
aF0.0
aF0.0
aF0.0
aF0.0
aF0.0
aF2.0
aF0.0
aF0.0
aF2.0
aF2.0
aF0.0
aF0.0
aF0.0
aF0.0
aF0.0
aF3.0
aF0.0
aF0.0
aF2.0
aF4.0
aF1.0
aF0.0
aF4.0
aF0.0
aF2.0
aF0.0
aF1.0
aF2.0
aF0.0
aF2.0
aF0.0
aF0.0
aF0.0
aF1.0
aF0.0
atp44
Rp45
(dp46
g6
F0.0
sg7
F1575.294
sg8
I0
sg9
g10
(g11
g12
Ntp47
Rp48
(dp49
g16
Finf
sg17
(F-57.498059999999995
g18
(g22
S'\x07\x8d\xbf41.\xb6>'
p50
tp51
Rp52
tp53
sbsg29
F1713.0313799381256
sg30
I190476899
sg31
F1713.0313799381256
sba.